ARM GAS  /tmp/cceKARlA.s 			page 1


   1              		.cpu cortex-m7
   2              		.eabi_attribute 28, 1
   3              		.eabi_attribute 20, 1
   4              		.eabi_attribute 21, 1
   5              		.eabi_attribute 23, 3
   6              		.eabi_attribute 24, 1
   7              		.eabi_attribute 25, 1
   8              		.eabi_attribute 26, 1
   9              		.eabi_attribute 30, 2
  10              		.eabi_attribute 34, 1
  11              		.eabi_attribute 18, 4
  12              		.file	"Ouroboros.cpp"
  13              		.text
  14              	.Ltext0:
  15              		.cfi_sections	.debug_frame
  16              		.section	.text._ZN7daisysp5AdEnvD2Ev,"axG",%progbits,_ZN7daisysp5AdEnvD5Ev,comdat
  17              		.align	1
  18              		.p2align 2,,3
  19              		.weak	_ZN7daisysp5AdEnvD2Ev
  20              		.arch armv7e-m
  21              		.syntax unified
  22              		.thumb
  23              		.thumb_func
  24              		.fpu fpv5-d16
  26              	_ZN7daisysp5AdEnvD2Ev:
  27              	.LVL0:
  28              	.LFB548:
  29              		.file 1 "../../DaisySP/Source/Control/adenv.h"
   1:../../DaisySP/Source/Control/adenv.h **** /*
   2:../../DaisySP/Source/Control/adenv.h **** Copyright (c) 2020 Electrosmith, Corp
   3:../../DaisySP/Source/Control/adenv.h **** 
   4:../../DaisySP/Source/Control/adenv.h **** Use of this source code is governed by an MIT-style
   5:../../DaisySP/Source/Control/adenv.h **** license that can be found in the LICENSE file or at
   6:../../DaisySP/Source/Control/adenv.h **** https://opensource.org/licenses/MIT.
   7:../../DaisySP/Source/Control/adenv.h **** */
   8:../../DaisySP/Source/Control/adenv.h **** 
   9:../../DaisySP/Source/Control/adenv.h **** #pragma once
  10:../../DaisySP/Source/Control/adenv.h **** #ifndef ADENV_H
  11:../../DaisySP/Source/Control/adenv.h **** #define ADENV_H
  12:../../DaisySP/Source/Control/adenv.h **** #include <stdint.h>
  13:../../DaisySP/Source/Control/adenv.h **** #ifdef __cplusplus
  14:../../DaisySP/Source/Control/adenv.h **** 
  15:../../DaisySP/Source/Control/adenv.h **** namespace daisysp
  16:../../DaisySP/Source/Control/adenv.h **** {
  17:../../DaisySP/Source/Control/adenv.h **** /** Distinct stages that the phase of the envelope can be located in.
  18:../../DaisySP/Source/Control/adenv.h ****     @see AdEnv
  19:../../DaisySP/Source/Control/adenv.h **** */
  20:../../DaisySP/Source/Control/adenv.h **** enum AdEnvSegment
  21:../../DaisySP/Source/Control/adenv.h **** {
  22:../../DaisySP/Source/Control/adenv.h ****     /** located at phase location 0, and not currently running */
  23:../../DaisySP/Source/Control/adenv.h ****     ADENV_SEG_IDLE,
  24:../../DaisySP/Source/Control/adenv.h ****     /** First segment of envelope where phase moves from MIN value to MAX value */
  25:../../DaisySP/Source/Control/adenv.h ****     ADENV_SEG_ATTACK,
  26:../../DaisySP/Source/Control/adenv.h ****     /** Second segment of envelope where phase moves from MAX to MIN value */
  27:../../DaisySP/Source/Control/adenv.h ****     ADENV_SEG_DECAY,
  28:../../DaisySP/Source/Control/adenv.h ****     /** The final segment of the envelope (currently decay) */
  29:../../DaisySP/Source/Control/adenv.h ****     ADENV_SEG_LAST,
ARM GAS  /tmp/cceKARlA.s 			page 2


  30:../../DaisySP/Source/Control/adenv.h **** };
  31:../../DaisySP/Source/Control/adenv.h **** 
  32:../../DaisySP/Source/Control/adenv.h **** /** Trigger-able envelope with adjustable min/max, and independent per-segment time control.
  33:../../DaisySP/Source/Control/adenv.h **** 
  34:../../DaisySP/Source/Control/adenv.h ****     \author shensley
  35:../../DaisySP/Source/Control/adenv.h ****     \todo - Add Cycling
  36:../../DaisySP/Source/Control/adenv.h ****     \todo - Implement Curve (its only linear for now).
  37:../../DaisySP/Source/Control/adenv.h ****     \todo - Maybe make this an ADsr_ that has AD/AR/Asr_ modes.
  38:../../DaisySP/Source/Control/adenv.h ****  */
  39:../../DaisySP/Source/Control/adenv.h **** class AdEnv
  40:../../DaisySP/Source/Control/adenv.h **** {
  41:../../DaisySP/Source/Control/adenv.h ****   public:
  42:../../DaisySP/Source/Control/adenv.h ****     AdEnv() {}
  43:../../DaisySP/Source/Control/adenv.h ****     ~AdEnv() {}
  30              		.loc 1 43 5 view -0
  31              		.cfi_startproc
  32              		@ args = 0, pretend = 0, frame = 0
  33              		@ frame_needed = 0, uses_anonymous_args = 0
  34              		@ link register save eliminated.
  35              		.loc 1 43 15 is_stmt 0 view .LVU1
  36 0000 7047     		bx	lr
  37              		.cfi_endproc
  38              	.LFE548:
  40              		.weak	_ZN7daisysp5AdEnvD1Ev
  41              		.thumb_set _ZN7daisysp5AdEnvD1Ev,_ZN7daisysp5AdEnvD2Ev
  42 0002 00BF     		.section	.text._ZN7daisysp10OscillatorD2Ev,"axG",%progbits,_ZN7daisysp10OscillatorD5Ev,comdat
  43              		.align	1
  44              		.p2align 2,,3
  45              		.weak	_ZN7daisysp10OscillatorD2Ev
  46              		.syntax unified
  47              		.thumb
  48              		.thumb_func
  49              		.fpu fpv5-d16
  51              	_ZN7daisysp10OscillatorD2Ev:
  52              	.LVL1:
  53              	.LFB2825:
  54              		.file 2 "../../DaisySP/Source/Synthesis/oscillator.h"
   1:../../DaisySP/Source/Synthesis/oscillator.h **** /*
   2:../../DaisySP/Source/Synthesis/oscillator.h **** Copyright (c) 2020 Electrosmith, Corp
   3:../../DaisySP/Source/Synthesis/oscillator.h **** 
   4:../../DaisySP/Source/Synthesis/oscillator.h **** Use of this source code is governed by an MIT-style
   5:../../DaisySP/Source/Synthesis/oscillator.h **** license that can be found in the LICENSE file or at
   6:../../DaisySP/Source/Synthesis/oscillator.h **** https://opensource.org/licenses/MIT.
   7:../../DaisySP/Source/Synthesis/oscillator.h **** */
   8:../../DaisySP/Source/Synthesis/oscillator.h **** 
   9:../../DaisySP/Source/Synthesis/oscillator.h **** #pragma once
  10:../../DaisySP/Source/Synthesis/oscillator.h **** #ifndef DSY_OSCILLATOR_H
  11:../../DaisySP/Source/Synthesis/oscillator.h **** #define DSY_OSCILLATOR_H
  12:../../DaisySP/Source/Synthesis/oscillator.h **** #include <stdint.h>
  13:../../DaisySP/Source/Synthesis/oscillator.h **** #include "Utility/dsp.h"
  14:../../DaisySP/Source/Synthesis/oscillator.h **** #ifdef __cplusplus
  15:../../DaisySP/Source/Synthesis/oscillator.h **** 
  16:../../DaisySP/Source/Synthesis/oscillator.h **** namespace daisysp
  17:../../DaisySP/Source/Synthesis/oscillator.h **** {
  18:../../DaisySP/Source/Synthesis/oscillator.h **** /** Synthesis of several waveforms, including polyBLEP bandlimited waveforms.
  19:../../DaisySP/Source/Synthesis/oscillator.h **** */
  20:../../DaisySP/Source/Synthesis/oscillator.h **** class Oscillator
ARM GAS  /tmp/cceKARlA.s 			page 3


  21:../../DaisySP/Source/Synthesis/oscillator.h **** {
  22:../../DaisySP/Source/Synthesis/oscillator.h ****   public:
  23:../../DaisySP/Source/Synthesis/oscillator.h ****     Oscillator() {}
  24:../../DaisySP/Source/Synthesis/oscillator.h ****     ~Oscillator() {}
  55              		.loc 2 24 5 is_stmt 1 view -0
  56              		.cfi_startproc
  57              		@ args = 0, pretend = 0, frame = 0
  58              		@ frame_needed = 0, uses_anonymous_args = 0
  59              		@ link register save eliminated.
  60              		.loc 2 24 20 is_stmt 0 view .LVU3
  61 0000 7047     		bx	lr
  62              		.cfi_endproc
  63              	.LFE2825:
  65              		.weak	_ZN7daisysp10OscillatorD1Ev
  66              		.thumb_set _ZN7daisysp10OscillatorD1Ev,_ZN7daisysp10OscillatorD2Ev
  67 0002 00BF     		.section	.text._ZN7daisysp5MetroD2Ev,"axG",%progbits,_ZN7daisysp5MetroD5Ev,comdat
  68              		.align	1
  69              		.p2align 2,,3
  70              		.weak	_ZN7daisysp5MetroD2Ev
  71              		.syntax unified
  72              		.thumb
  73              		.thumb_func
  74              		.fpu fpv5-d16
  76              	_ZN7daisysp5MetroD2Ev:
  77              	.LVL2:
  78              	.LFB3496:
  79              		.file 3 "../../DaisySP/Source/Utility/metro.h"
   1:../../DaisySP/Source/Utility/metro.h **** /*
   2:../../DaisySP/Source/Utility/metro.h **** Copyright (c) 2020 Electrosmith, Corp
   3:../../DaisySP/Source/Utility/metro.h **** 
   4:../../DaisySP/Source/Utility/metro.h **** Use of this source code is governed by an MIT-style
   5:../../DaisySP/Source/Utility/metro.h **** license that can be found in the LICENSE file or at
   6:../../DaisySP/Source/Utility/metro.h **** https://opensource.org/licenses/MIT.
   7:../../DaisySP/Source/Utility/metro.h **** */
   8:../../DaisySP/Source/Utility/metro.h **** 
   9:../../DaisySP/Source/Utility/metro.h **** #pragma once
  10:../../DaisySP/Source/Utility/metro.h **** #ifndef DSY_METRO_H
  11:../../DaisySP/Source/Utility/metro.h **** #define DSY_METRO_H
  12:../../DaisySP/Source/Utility/metro.h **** #include <stdint.h>
  13:../../DaisySP/Source/Utility/metro.h **** #ifdef __cplusplus
  14:../../DaisySP/Source/Utility/metro.h **** 
  15:../../DaisySP/Source/Utility/metro.h **** namespace daisysp
  16:../../DaisySP/Source/Utility/metro.h **** {
  17:../../DaisySP/Source/Utility/metro.h **** /** Creates a clock signal at a specific frequency.
  18:../../DaisySP/Source/Utility/metro.h **** */
  19:../../DaisySP/Source/Utility/metro.h **** class Metro
  20:../../DaisySP/Source/Utility/metro.h **** {
  21:../../DaisySP/Source/Utility/metro.h ****   public:
  22:../../DaisySP/Source/Utility/metro.h ****     Metro() {}
  23:../../DaisySP/Source/Utility/metro.h ****     ~Metro() {}
  80              		.loc 3 23 5 is_stmt 1 view -0
  81              		.cfi_startproc
  82              		@ args = 0, pretend = 0, frame = 0
  83              		@ frame_needed = 0, uses_anonymous_args = 0
  84              		@ link register save eliminated.
  85              		.loc 3 23 15 is_stmt 0 view .LVU5
  86 0000 7047     		bx	lr
ARM GAS  /tmp/cceKARlA.s 			page 4


  87              		.cfi_endproc
  88              	.LFE3496:
  90              		.weak	_ZN7daisysp5MetroD1Ev
  91              		.thumb_set _ZN7daisysp5MetroD1Ev,_ZN7daisysp5MetroD2Ev
  92 0002 00BF     		.section	.text._ZN5daisy9DaisySeedD2Ev,"axG",%progbits,_ZN5daisy9DaisySeedD5Ev,comdat
  93              		.align	1
  94              		.p2align 2,,3
  95              		.weak	_ZN5daisy9DaisySeedD2Ev
  96              		.syntax unified
  97              		.thumb
  98              		.thumb_func
  99              		.fpu fpv5-d16
 101              	_ZN5daisy9DaisySeedD2Ev:
 102              	.LVL3:
 103              	.LFB4684:
 104              		.file 4 "../../libDaisy/src/daisy_seed.h"
   1:../../libDaisy/src/daisy_seed.h **** #pragma once
   2:../../libDaisy/src/daisy_seed.h **** #ifndef DSY_SEED_H
   3:../../libDaisy/src/daisy_seed.h **** #define DSY_SEED_H
   4:../../libDaisy/src/daisy_seed.h **** 
   5:../../libDaisy/src/daisy_seed.h **** #include "daisy.h"
   6:../../libDaisy/src/daisy_seed.h **** 
   7:../../libDaisy/src/daisy_seed.h **** //Uncomment this out if you're still using the rev2 hardware
   8:../../libDaisy/src/daisy_seed.h **** //#define SEED_REV2
   9:../../libDaisy/src/daisy_seed.h **** 
  10:../../libDaisy/src/daisy_seed.h **** namespace daisy
  11:../../libDaisy/src/daisy_seed.h **** {
  12:../../libDaisy/src/daisy_seed.h **** /**
  13:../../libDaisy/src/daisy_seed.h ****    @brief This is the higher-level interface for the Daisy board. \n 
  14:../../libDaisy/src/daisy_seed.h ****     All basic peripheral configuration/initialization is setup here. \n
  15:../../libDaisy/src/daisy_seed.h **** 
  16:../../libDaisy/src/daisy_seed.h ****    @ingroup boards
  17:../../libDaisy/src/daisy_seed.h **** */
  18:../../libDaisy/src/daisy_seed.h **** class DaisySeed
  19:../../libDaisy/src/daisy_seed.h **** {
  20:../../libDaisy/src/daisy_seed.h ****   public:
  21:../../libDaisy/src/daisy_seed.h ****     DaisySeed() {}
  22:../../libDaisy/src/daisy_seed.h ****     ~DaisySeed() {}
 105              		.loc 4 22 5 is_stmt 1 view -0
 106              		.cfi_startproc
 107              		@ args = 0, pretend = 0, frame = 0
 108              		@ frame_needed = 0, uses_anonymous_args = 0
 109              		@ link register save eliminated.
 110              	.LBB129:
 111              	.LBI129:
 112              		.file 5 "../../libDaisy/src/sys/system.h"
   1:../../libDaisy/src/sys/system.h **** #ifndef DSY_SYSTEM_H
   2:../../libDaisy/src/sys/system.h **** #define DSY_SYSTEM_H
   3:../../libDaisy/src/sys/system.h **** 
   4:../../libDaisy/src/sys/system.h **** #ifndef UNIT_TEST // for unit tests, a dummy implementation is provided below
   5:../../libDaisy/src/sys/system.h **** 
   6:../../libDaisy/src/sys/system.h **** #include <cstdint>
   7:../../libDaisy/src/sys/system.h **** #include "per/tim.h"
   8:../../libDaisy/src/sys/system.h **** 
   9:../../libDaisy/src/sys/system.h **** namespace daisy
  10:../../libDaisy/src/sys/system.h **** {
  11:../../libDaisy/src/sys/system.h **** /** A handle for interacting with the Core System.
ARM GAS  /tmp/cceKARlA.s 			page 5


  12:../../libDaisy/src/sys/system.h ****  ** This includes the Clock tree, MPU, global DMA initialization,
  13:../../libDaisy/src/sys/system.h ****  ** cache handling, and any other necessary global initiailzation
  14:../../libDaisy/src/sys/system.h ****  **
  15:../../libDaisy/src/sys/system.h ****  ** @author shensley
  16:../../libDaisy/src/sys/system.h ****  ** @ingroup system
  17:../../libDaisy/src/sys/system.h ****  */
  18:../../libDaisy/src/sys/system.h **** class System
  19:../../libDaisy/src/sys/system.h **** {
  20:../../libDaisy/src/sys/system.h ****   public:
  21:../../libDaisy/src/sys/system.h ****     /** Contains settings for initializing the System */
  22:../../libDaisy/src/sys/system.h ****     struct Config
  23:../../libDaisy/src/sys/system.h ****     {
  24:../../libDaisy/src/sys/system.h ****         /** Specifies the system clock frequency that feeds APB/AHB clocks, etc. */
  25:../../libDaisy/src/sys/system.h ****         enum class SysClkFreq
  26:../../libDaisy/src/sys/system.h ****         {
  27:../../libDaisy/src/sys/system.h ****             FREQ_400MHZ,
  28:../../libDaisy/src/sys/system.h ****             FREQ_480MHZ,
  29:../../libDaisy/src/sys/system.h ****         };
  30:../../libDaisy/src/sys/system.h **** 
  31:../../libDaisy/src/sys/system.h ****         /** Method to call on the struct to set to defaults
  32:../../libDaisy/src/sys/system.h ****          ** CPU Freq set to 400MHz
  33:../../libDaisy/src/sys/system.h ****          ** Cache Enabled
  34:../../libDaisy/src/sys/system.h ****          ** */
  35:../../libDaisy/src/sys/system.h ****         void Defaults()
  36:../../libDaisy/src/sys/system.h ****         {
  37:../../libDaisy/src/sys/system.h ****             cpu_freq    = SysClkFreq::FREQ_400MHZ;
  38:../../libDaisy/src/sys/system.h ****             use_dcache  = true;
  39:../../libDaisy/src/sys/system.h ****             use_icache  = true;
  40:../../libDaisy/src/sys/system.h ****             skip_clocks = false;
  41:../../libDaisy/src/sys/system.h ****         }
  42:../../libDaisy/src/sys/system.h **** 
  43:../../libDaisy/src/sys/system.h ****         /** Method to call on the struct to set to boost mode:
  44:../../libDaisy/src/sys/system.h ****          ** CPU Freq set to 480MHz
  45:../../libDaisy/src/sys/system.h ****          ** Cache Enabled
  46:../../libDaisy/src/sys/system.h ****          ** */
  47:../../libDaisy/src/sys/system.h ****         void Boost()
  48:../../libDaisy/src/sys/system.h ****         {
  49:../../libDaisy/src/sys/system.h ****             cpu_freq    = SysClkFreq::FREQ_480MHZ;
  50:../../libDaisy/src/sys/system.h ****             use_dcache  = true;
  51:../../libDaisy/src/sys/system.h ****             use_icache  = true;
  52:../../libDaisy/src/sys/system.h ****             skip_clocks = false;
  53:../../libDaisy/src/sys/system.h ****         }
  54:../../libDaisy/src/sys/system.h **** 
  55:../../libDaisy/src/sys/system.h ****         SysClkFreq cpu_freq;
  56:../../libDaisy/src/sys/system.h ****         bool       use_dcache;
  57:../../libDaisy/src/sys/system.h ****         bool       use_icache;
  58:../../libDaisy/src/sys/system.h ****         bool       skip_clocks;
  59:../../libDaisy/src/sys/system.h ****     };
  60:../../libDaisy/src/sys/system.h **** 
  61:../../libDaisy/src/sys/system.h ****     /** Describes the different regions of memory available to the Daisy */
  62:../../libDaisy/src/sys/system.h ****     enum MemoryRegion
  63:../../libDaisy/src/sys/system.h ****     {
  64:../../libDaisy/src/sys/system.h ****         INTERNAL_FLASH = 0,
  65:../../libDaisy/src/sys/system.h ****         ITCMRAM,
  66:../../libDaisy/src/sys/system.h ****         DTCMRAM,
  67:../../libDaisy/src/sys/system.h ****         SRAM_D1,
  68:../../libDaisy/src/sys/system.h ****         SRAM_D2,
ARM GAS  /tmp/cceKARlA.s 			page 6


  69:../../libDaisy/src/sys/system.h ****         SRAM_D3,
  70:../../libDaisy/src/sys/system.h ****         SDRAM,
  71:../../libDaisy/src/sys/system.h ****         QSPI,
  72:../../libDaisy/src/sys/system.h ****         INVALID_ADDRESS,
  73:../../libDaisy/src/sys/system.h ****     };
  74:../../libDaisy/src/sys/system.h **** 
  75:../../libDaisy/src/sys/system.h ****     /** Bootloader struct for controlling bootloading parameters */
  76:../../libDaisy/src/sys/system.h ****     struct BootInfo
  77:../../libDaisy/src/sys/system.h ****     {
  78:../../libDaisy/src/sys/system.h ****         enum class Type : uint32_t
  79:../../libDaisy/src/sys/system.h ****         {
  80:../../libDaisy/src/sys/system.h ****             INVALID      = 0x00000000,
  81:../../libDaisy/src/sys/system.h ****             JUMP         = 0xDEADBEEF,
  82:../../libDaisy/src/sys/system.h ****             SKIP_TIMEOUT = 0x5AFEB007,
  83:../../libDaisy/src/sys/system.h ****             INF_TIMEOUT  = 0xB0074EFA,
  84:../../libDaisy/src/sys/system.h ****         } status;
  85:../../libDaisy/src/sys/system.h ****         uint32_t data;
  86:../../libDaisy/src/sys/system.h ****         enum class Version : uint32_t
  87:../../libDaisy/src/sys/system.h ****         {
  88:../../libDaisy/src/sys/system.h ****             LT_v6_0 = 0, // Less than v6.0
  89:../../libDaisy/src/sys/system.h ****             NONE,        // No bootloader present
  90:../../libDaisy/src/sys/system.h ****             v6_0,        // v6.0
  91:../../libDaisy/src/sys/system.h ****             v6_1,        // v6.1 or greater
  92:../../libDaisy/src/sys/system.h ****             LAST
  93:../../libDaisy/src/sys/system.h ****         } version;
  94:../../libDaisy/src/sys/system.h ****     };
  95:../../libDaisy/src/sys/system.h **** 
  96:../../libDaisy/src/sys/system.h ****     System() {}
  97:../../libDaisy/src/sys/system.h ****     ~System() {}
 113              		.loc 5 97 5 view .LVU7
 114              		.loc 5 97 5 is_stmt 0 view .LVU8
 115              	.LBE129:
 116              	.LBB130:
 117              	.LBI130:
 118              		.file 6 "../../libDaisy/src/hid/usb.h"
   1:../../libDaisy/src/hid/usb.h **** #pragma once
   2:../../libDaisy/src/hid/usb.h **** #ifndef DSY_HID_USB_H
   3:../../libDaisy/src/hid/usb.h **** #define DSY_HID_USB_H
   4:../../libDaisy/src/hid/usb.h **** #include <stdint.h>
   5:../../libDaisy/src/hid/usb.h **** #include <stdlib.h>
   6:../../libDaisy/src/hid/usb.h **** 
   7:../../libDaisy/src/hid/usb.h **** namespace daisy
   8:../../libDaisy/src/hid/usb.h **** /** @addtogroup human_interface
   9:../../libDaisy/src/hid/usb.h ****     @{
  10:../../libDaisy/src/hid/usb.h **** */
  11:../../libDaisy/src/hid/usb.h **** 
  12:../../libDaisy/src/hid/usb.h **** {
  13:../../libDaisy/src/hid/usb.h **** /** 
  14:../../libDaisy/src/hid/usb.h ****     @brief Interface for initializing and using the USB Peripherals on the daisy
  15:../../libDaisy/src/hid/usb.h ****     @author Stephen Hensley
  16:../../libDaisy/src/hid/usb.h ****     @date December 2019
  17:../../libDaisy/src/hid/usb.h **** */
  18:../../libDaisy/src/hid/usb.h **** class UsbHandle
  19:../../libDaisy/src/hid/usb.h **** {
  20:../../libDaisy/src/hid/usb.h ****   public:
  21:../../libDaisy/src/hid/usb.h ****     /** Return values for USBHandle Functions */
  22:../../libDaisy/src/hid/usb.h ****     enum class Result
ARM GAS  /tmp/cceKARlA.s 			page 7


  23:../../libDaisy/src/hid/usb.h ****     {
  24:../../libDaisy/src/hid/usb.h ****         OK,
  25:../../libDaisy/src/hid/usb.h ****         ERR,
  26:../../libDaisy/src/hid/usb.h ****     };
  27:../../libDaisy/src/hid/usb.h **** 
  28:../../libDaisy/src/hid/usb.h ****     /** Specified which of the two USB Peripherals to initialize. */
  29:../../libDaisy/src/hid/usb.h ****     enum UsbPeriph
  30:../../libDaisy/src/hid/usb.h ****     {
  31:../../libDaisy/src/hid/usb.h ****         FS_INTERNAL, /**< Internal pin */
  32:../../libDaisy/src/hid/usb.h ****         FS_EXTERNAL, /**< FS External D+ pin is Pin 38 (GPIO32). FS External D- pin is Pin 37 (GPIO
  33:../../libDaisy/src/hid/usb.h ****         FS_BOTH,     /**< Both */
  34:../../libDaisy/src/hid/usb.h ****     };
  35:../../libDaisy/src/hid/usb.h **** 
  36:../../libDaisy/src/hid/usb.h **** 
  37:../../libDaisy/src/hid/usb.h ****     /** Function called upon reception of a buffer */
  38:../../libDaisy/src/hid/usb.h ****     typedef void (*ReceiveCallback)(uint8_t* buff, uint32_t* len);
  39:../../libDaisy/src/hid/usb.h **** 
  40:../../libDaisy/src/hid/usb.h ****     UsbHandle() {}
  41:../../libDaisy/src/hid/usb.h **** 
  42:../../libDaisy/src/hid/usb.h ****     ~UsbHandle() {}
 119              		.loc 6 42 5 is_stmt 1 view .LVU9
 120              		.loc 6 42 5 is_stmt 0 view .LVU10
 121              	.LBE130:
 122              	.LBB131:
 123              	.LBI131:
 124              		.file 7 "../../libDaisy/src/per/adc.h"
   1:../../libDaisy/src/per/adc.h **** #pragma once
   2:../../libDaisy/src/per/adc.h **** #ifndef DSY_ADC_H
   3:../../libDaisy/src/per/adc.h **** #define DSY_ADC_H /**< Macro */
   4:../../libDaisy/src/per/adc.h **** #include <stdint.h>
   5:../../libDaisy/src/per/adc.h **** #include <stdlib.h>
   6:../../libDaisy/src/per/adc.h **** #include "daisy_core.h"
   7:../../libDaisy/src/per/adc.h **** #include "per/gpio.h"
   8:../../libDaisy/src/per/adc.h **** 
   9:../../libDaisy/src/per/adc.h **** #define DSY_ADC_MAX_CHANNELS 16 /**< Maximum number of ADC channels */
  10:../../libDaisy/src/per/adc.h **** 
  11:../../libDaisy/src/per/adc.h **** namespace daisy
  12:../../libDaisy/src/per/adc.h **** {
  13:../../libDaisy/src/per/adc.h **** /** @addtogroup per_analog
  14:../../libDaisy/src/per/adc.h ****     @{
  15:../../libDaisy/src/per/adc.h **** */
  16:../../libDaisy/src/per/adc.h **** 
  17:../../libDaisy/src/per/adc.h **** /* While there may not be many configuration options here,
  18:../../libDaisy/src/per/adc.h **** using a struct like this allows us to add more configuration
  19:../../libDaisy/src/per/adc.h **** later without breaking existing functionality.
  20:../../libDaisy/src/per/adc.h **** */
  21:../../libDaisy/src/per/adc.h **** 
  22:../../libDaisy/src/per/adc.h **** /** @brief   Configuration Structure for an ADC Channel 
  23:../../libDaisy/src/per/adc.h ****  *  @details This can be used to configure a a single input, 
  24:../../libDaisy/src/per/adc.h ****  *           or a multiplexed input, allowing up to 8 inputs on 
  25:../../libDaisy/src/per/adc.h ****  *           one channel.
  26:../../libDaisy/src/per/adc.h ****  *  @note    Sharing data lines to multiple muxes _is_ possible, but
  27:../../libDaisy/src/per/adc.h ****  *           each channel sharing data lines must be set to the maximum
  28:../../libDaisy/src/per/adc.h ****  *           number of channels, even if some multiplexers have fewer
  29:../../libDaisy/src/per/adc.h ****  *           inputs connected.
  30:../../libDaisy/src/per/adc.h **** */
  31:../../libDaisy/src/per/adc.h **** struct AdcChannelConfig
ARM GAS  /tmp/cceKARlA.s 			page 8


  32:../../libDaisy/src/per/adc.h **** {
  33:../../libDaisy/src/per/adc.h ****     /** Which pin to use for multiplexing */
  34:../../libDaisy/src/per/adc.h ****     enum MuxPin
  35:../../libDaisy/src/per/adc.h ****     {
  36:../../libDaisy/src/per/adc.h ****         MUX_SEL_0,    /**< & */
  37:../../libDaisy/src/per/adc.h ****         MUX_SEL_1,    /**< & */
  38:../../libDaisy/src/per/adc.h ****         MUX_SEL_2,    /**< & */
  39:../../libDaisy/src/per/adc.h ****         MUX_SEL_LAST, /**< & */
  40:../../libDaisy/src/per/adc.h ****     };
  41:../../libDaisy/src/per/adc.h **** 
  42:../../libDaisy/src/per/adc.h ****     /** \brief per channel conversion speed added to fixed time based on bitdepth, etc. */
  43:../../libDaisy/src/per/adc.h ****     enum ConversionSpeed
  44:../../libDaisy/src/per/adc.h ****     {
  45:../../libDaisy/src/per/adc.h ****         SPEED_1CYCLES_5,
  46:../../libDaisy/src/per/adc.h ****         SPEED_2CYCLES_5,
  47:../../libDaisy/src/per/adc.h ****         SPEED_8CYCLES_5,
  48:../../libDaisy/src/per/adc.h ****         SPEED_16CYCLES_5,
  49:../../libDaisy/src/per/adc.h ****         SPEED_32CYCLES_5,
  50:../../libDaisy/src/per/adc.h ****         SPEED_64CYCLES_5,
  51:../../libDaisy/src/per/adc.h ****         SPEED_387CYCLES_5,
  52:../../libDaisy/src/per/adc.h ****         SPEED_810CYCLES_5,
  53:../../libDaisy/src/per/adc.h ****     };
  54:../../libDaisy/src/per/adc.h **** 
  55:../../libDaisy/src/per/adc.h ****     /** Initializes a single ADC pin as an ADC. 
  56:../../libDaisy/src/per/adc.h ****     \param pin Pin to init.
  57:../../libDaisy/src/per/adc.h ****     \param speed conversion speed for this pin defaults to 8.5 cycles
  58:../../libDaisy/src/per/adc.h ****      */
  59:../../libDaisy/src/per/adc.h ****     void InitSingle(dsy_gpio_pin pin, ConversionSpeed speed = SPEED_8CYCLES_5);
  60:../../libDaisy/src/per/adc.h **** 
  61:../../libDaisy/src/per/adc.h ****     /** 
  62:../../libDaisy/src/per/adc.h ****     Initializes a single ADC pin as a Multiplexed ADC.
  63:../../libDaisy/src/per/adc.h ****     Requires a CD405X Multiplexer connected to the pin.
  64:../../libDaisy/src/per/adc.h ****     You only need to supply the mux pins that are required,
  65:../../libDaisy/src/per/adc.h ****     e.g. a 4052 mux would only require mux_0 and mux_1.
  66:../../libDaisy/src/per/adc.h ****     Internal Callbacks handle the pin addressing.
  67:../../libDaisy/src/per/adc.h ****     \param adc_pin &
  68:../../libDaisy/src/per/adc.h ****     \param mux_channels must be 1-8
  69:../../libDaisy/src/per/adc.h ****     \param mux_0 First mux pin
  70:../../libDaisy/src/per/adc.h ****     \param mux_1 Second mux pin
  71:../../libDaisy/src/per/adc.h ****     \param mux_2 Third mux pin
  72:../../libDaisy/src/per/adc.h ****     \param speed conversion speed for this pin defaults to 8.5 cycles
  73:../../libDaisy/src/per/adc.h ****     */
  74:../../libDaisy/src/per/adc.h ****     void InitMux(dsy_gpio_pin    adc_pin,
  75:../../libDaisy/src/per/adc.h ****                  size_t          mux_channels,
  76:../../libDaisy/src/per/adc.h ****                  dsy_gpio_pin    mux_0,
  77:../../libDaisy/src/per/adc.h ****                  dsy_gpio_pin    mux_1 = {DSY_GPIOX, 0},
  78:../../libDaisy/src/per/adc.h ****                  dsy_gpio_pin    mux_2 = {DSY_GPIOX, 0},
  79:../../libDaisy/src/per/adc.h ****                  ConversionSpeed speed = SPEED_8CYCLES_5);
  80:../../libDaisy/src/per/adc.h **** 
  81:../../libDaisy/src/per/adc.h ****     dsy_gpio        pin_;                   /**< & */
  82:../../libDaisy/src/per/adc.h ****     dsy_gpio        mux_pin_[MUX_SEL_LAST]; /**< & */
  83:../../libDaisy/src/per/adc.h ****     uint8_t         mux_channels_;          /**< & */
  84:../../libDaisy/src/per/adc.h ****     ConversionSpeed speed_;
  85:../../libDaisy/src/per/adc.h **** };
  86:../../libDaisy/src/per/adc.h **** 
  87:../../libDaisy/src/per/adc.h **** /**
  88:../../libDaisy/src/per/adc.h ****    @brief Handler for analog to digital conversion
ARM GAS  /tmp/cceKARlA.s 			page 9


  89:../../libDaisy/src/per/adc.h **** */
  90:../../libDaisy/src/per/adc.h **** class AdcHandle
  91:../../libDaisy/src/per/adc.h **** {
  92:../../libDaisy/src/per/adc.h ****   public:
  93:../../libDaisy/src/per/adc.h ****     /** Supported oversampling amounts */
  94:../../libDaisy/src/per/adc.h ****     enum OverSampling
  95:../../libDaisy/src/per/adc.h ****     {
  96:../../libDaisy/src/per/adc.h ****         OVS_NONE, /**< & */
  97:../../libDaisy/src/per/adc.h ****         OVS_4,    /**< & */
  98:../../libDaisy/src/per/adc.h ****         OVS_8,    /**< & */
  99:../../libDaisy/src/per/adc.h ****         OVS_16,   /**< & */
 100:../../libDaisy/src/per/adc.h ****         OVS_32,   /**< & */
 101:../../libDaisy/src/per/adc.h ****         OVS_64,   /**< & */
 102:../../libDaisy/src/per/adc.h ****         OVS_128,  /**< & */
 103:../../libDaisy/src/per/adc.h ****         OVS_256,  /**< & */
 104:../../libDaisy/src/per/adc.h ****         OVS_512,  /**< & */
 105:../../libDaisy/src/per/adc.h ****         OVS_1024, /**< & */
 106:../../libDaisy/src/per/adc.h ****         OVS_LAST, /**< & */
 107:../../libDaisy/src/per/adc.h ****     };
 108:../../libDaisy/src/per/adc.h **** 
 109:../../libDaisy/src/per/adc.h ****     AdcHandle() {}
 110:../../libDaisy/src/per/adc.h ****     ~AdcHandle() {}
 125              		.loc 7 110 5 is_stmt 1 view .LVU11
 126              		.loc 7 110 5 is_stmt 0 view .LVU12
 127              	.LBE131:
 128              	.LBB132:
 129              	.LBI132:
 130              		.file 8 "../../libDaisy/src/hid/audio.h"
   1:../../libDaisy/src/hid/audio.h **** #ifndef DSY_AUDIO_H
   2:../../libDaisy/src/hid/audio.h **** #define DSY_AUDIO_H /**< & */
   3:../../libDaisy/src/hid/audio.h **** 
   4:../../libDaisy/src/hid/audio.h **** #include "per/sai.h"
   5:../../libDaisy/src/hid/audio.h **** 
   6:../../libDaisy/src/hid/audio.h **** namespace daisy
   7:../../libDaisy/src/hid/audio.h **** {
   8:../../libDaisy/src/hid/audio.h **** /** @brief Audio Engine Handle
   9:../../libDaisy/src/hid/audio.h ****  *  @ingroup audio 
  10:../../libDaisy/src/hid/audio.h ****  *  @details This class allows for higher level access to an audio engine.
  11:../../libDaisy/src/hid/audio.h ****  *           If you're using a SOM like the DaisySeed or DaisyPatchSM (or any 
  12:../../libDaisy/src/hid/audio.h ****  *            board that includes one of those objects) then the intialization
  13:../../libDaisy/src/hid/audio.h ****  *            is already taken  care of.
  14:../../libDaisy/src/hid/audio.h ****  *           If you're setting up your own custom hardware, or need to make changes
  15:../../libDaisy/src/hid/audio.h ****  *           you will have to take the following steps:
  16:../../libDaisy/src/hid/audio.h ****  *             1. Create and Initialize an SaiHandle or two depending on your requirements
  17:../../libDaisy/src/hid/audio.h ****  *             2. Initialize the Audio Handle with the desired settings and the Initialized SaiHand
  18:../../libDaisy/src/hid/audio.h ****  *             3. If the connected codec requires special configuration or initialization, do so
  19:../../libDaisy/src/hid/audio.h ****  *             4. Write a callback method using either the AudioCallback or the InterleavingAudioCa
  20:../../libDaisy/src/hid/audio.h ****  *             5. Start the Audio using one of the StartAudio function
  21:../../libDaisy/src/hid/audio.h ****  */
  22:../../libDaisy/src/hid/audio.h **** class AudioHandle
  23:../../libDaisy/src/hid/audio.h **** {
  24:../../libDaisy/src/hid/audio.h ****   public:
  25:../../libDaisy/src/hid/audio.h ****     /** Manually configurable details about the Audio Engine */
  26:../../libDaisy/src/hid/audio.h ****     /** TODO: Figure out how to get samplerate in here. */
  27:../../libDaisy/src/hid/audio.h ****     struct Config
  28:../../libDaisy/src/hid/audio.h ****     {
  29:../../libDaisy/src/hid/audio.h ****         /** number of samples to process per callback */
ARM GAS  /tmp/cceKARlA.s 			page 10


  30:../../libDaisy/src/hid/audio.h ****         size_t blocksize;
  31:../../libDaisy/src/hid/audio.h **** 
  32:../../libDaisy/src/hid/audio.h ****         /**< Sample rate of audio */
  33:../../libDaisy/src/hid/audio.h ****         SaiHandle::Config::SampleRate samplerate;
  34:../../libDaisy/src/hid/audio.h **** 
  35:../../libDaisy/src/hid/audio.h ****         /** factor for adjustment before and after callback for hardware that may have extra headro
  36:../../libDaisy/src/hid/audio.h ****         float postgain;
  37:../../libDaisy/src/hid/audio.h **** 
  38:../../libDaisy/src/hid/audio.h ****         /** factor for additional one-sided compensation to audio path for hardware that may
  39:../../libDaisy/src/hid/audio.h ****          *  have unequal input/output ranges
  40:../../libDaisy/src/hid/audio.h ****          */
  41:../../libDaisy/src/hid/audio.h ****         float output_compensation;
  42:../../libDaisy/src/hid/audio.h **** 
  43:../../libDaisy/src/hid/audio.h ****         /** Sets default values for config struct */
  44:../../libDaisy/src/hid/audio.h ****         Config()
  45:../../libDaisy/src/hid/audio.h ****         : blocksize(48),
  46:../../libDaisy/src/hid/audio.h ****           samplerate(SaiHandle::Config::SampleRate::SAI_48KHZ),
  47:../../libDaisy/src/hid/audio.h ****           postgain(1.f),
  48:../../libDaisy/src/hid/audio.h ****           output_compensation(1.f)
  49:../../libDaisy/src/hid/audio.h ****         {
  50:../../libDaisy/src/hid/audio.h ****         }
  51:../../libDaisy/src/hid/audio.h ****     };
  52:../../libDaisy/src/hid/audio.h **** 
  53:../../libDaisy/src/hid/audio.h ****     enum class Result
  54:../../libDaisy/src/hid/audio.h ****     {
  55:../../libDaisy/src/hid/audio.h ****         OK,
  56:../../libDaisy/src/hid/audio.h ****         ERR,
  57:../../libDaisy/src/hid/audio.h ****     };
  58:../../libDaisy/src/hid/audio.h **** 
  59:../../libDaisy/src/hid/audio.h ****     /** Non-Interleaving input buffer
  60:../../libDaisy/src/hid/audio.h ****      * Buffer arranged by float[chn][sample] 
  61:../../libDaisy/src/hid/audio.h ****      * const so that the user can't modify the input
  62:../../libDaisy/src/hid/audio.h ****      */
  63:../../libDaisy/src/hid/audio.h ****     typedef const float* const* InputBuffer;
  64:../../libDaisy/src/hid/audio.h **** 
  65:../../libDaisy/src/hid/audio.h ****     /** Non-Interleaving output buffer
  66:../../libDaisy/src/hid/audio.h ****      * Arranged by float[chn][sample] 
  67:../../libDaisy/src/hid/audio.h ****      */
  68:../../libDaisy/src/hid/audio.h ****     typedef float** OutputBuffer;
  69:../../libDaisy/src/hid/audio.h **** 
  70:../../libDaisy/src/hid/audio.h ****     /** Type for a Non-Interleaving audio callback 
  71:../../libDaisy/src/hid/audio.h ****      * Non-Interleaving audio callbacks in daisy will be of this type
  72:../../libDaisy/src/hid/audio.h ****      */
  73:../../libDaisy/src/hid/audio.h ****     typedef void (*AudioCallback)(InputBuffer  in,
  74:../../libDaisy/src/hid/audio.h ****                                   OutputBuffer out,
  75:../../libDaisy/src/hid/audio.h ****                                   size_t       size);
  76:../../libDaisy/src/hid/audio.h **** 
  77:../../libDaisy/src/hid/audio.h ****     /** Interleaving Input buffer
  78:../../libDaisy/src/hid/audio.h ****      ** audio is prepared as { L0, R0, L1, R1, . . . LN, RN }]
  79:../../libDaisy/src/hid/audio.h ****      ** this is const, as the user shouldn't modify it
  80:../../libDaisy/src/hid/audio.h ****     */
  81:../../libDaisy/src/hid/audio.h ****     typedef const float* InterleavingInputBuffer;
  82:../../libDaisy/src/hid/audio.h **** 
  83:../../libDaisy/src/hid/audio.h ****     /** Interleaving Output buffer 
  84:../../libDaisy/src/hid/audio.h ****      ** audio is prepared as { L0, R0, L1, R1, . . . LN, RN }
  85:../../libDaisy/src/hid/audio.h ****     */
  86:../../libDaisy/src/hid/audio.h ****     typedef float* InterleavingOutputBuffer;
ARM GAS  /tmp/cceKARlA.s 			page 11


  87:../../libDaisy/src/hid/audio.h **** 
  88:../../libDaisy/src/hid/audio.h ****     /** Interleaving Audio Callback 
  89:../../libDaisy/src/hid/audio.h ****      * Interleaving audio callbacks in daisy must be of this type
  90:../../libDaisy/src/hid/audio.h ****      */
  91:../../libDaisy/src/hid/audio.h ****     typedef void (*InterleavingAudioCallback)(InterleavingInputBuffer  in,
  92:../../libDaisy/src/hid/audio.h ****                                               InterleavingOutputBuffer out,
  93:../../libDaisy/src/hid/audio.h ****                                               size_t                   size);
  94:../../libDaisy/src/hid/audio.h **** 
  95:../../libDaisy/src/hid/audio.h ****     AudioHandle() : pimpl_(nullptr) {}
  96:../../libDaisy/src/hid/audio.h ****     ~AudioHandle() {}
 131              		.loc 8 96 5 is_stmt 1 view .LVU13
 132              		.loc 8 96 5 is_stmt 0 view .LVU14
 133              	.LBE132:
 134              		.loc 4 22 19 view .LVU15
 135 0000 7047     		bx	lr
 136              		.cfi_endproc
 137              	.LFE4684:
 139              		.weak	_ZN5daisy9DaisySeedD1Ev
 140              		.thumb_set _ZN5daisy9DaisySeedD1Ev,_ZN5daisy9DaisySeedD2Ev
 141 0002 00BF     		.section	.text._ZN7daisysp9DelayLineIfLj36000EED2Ev,"axG",%progbits,_ZN7daisysp9DelayLineIfLj36000
 142              		.align	1
 143              		.p2align 2,,3
 144              		.weak	_ZN7daisysp9DelayLineIfLj36000EED2Ev
 145              		.syntax unified
 146              		.thumb
 147              		.thumb_func
 148              		.fpu fpv5-d16
 150              	_ZN7daisysp9DelayLineIfLj36000EED2Ev:
 151              	.LVL4:
 152              	.LFB5262:
 153              		.file 9 "../../DaisySP/Source/Utility/delayline.h"
   1:../../DaisySP/Source/Utility/delayline.h **** /*
   2:../../DaisySP/Source/Utility/delayline.h **** Copyright (c) 2020 Electrosmith, Corp
   3:../../DaisySP/Source/Utility/delayline.h **** 
   4:../../DaisySP/Source/Utility/delayline.h **** Use of this source code is governed by an MIT-style
   5:../../DaisySP/Source/Utility/delayline.h **** license that can be found in the LICENSE file or at
   6:../../DaisySP/Source/Utility/delayline.h **** https://opensource.org/licenses/MIT.
   7:../../DaisySP/Source/Utility/delayline.h **** */
   8:../../DaisySP/Source/Utility/delayline.h **** 
   9:../../DaisySP/Source/Utility/delayline.h **** #pragma once
  10:../../DaisySP/Source/Utility/delayline.h **** #ifndef DSY_DELAY_H
  11:../../DaisySP/Source/Utility/delayline.h **** #define DSY_DELAY_H
  12:../../DaisySP/Source/Utility/delayline.h **** #include <stdlib.h>
  13:../../DaisySP/Source/Utility/delayline.h **** #include <stdint.h>
  14:../../DaisySP/Source/Utility/delayline.h **** namespace daisysp
  15:../../DaisySP/Source/Utility/delayline.h **** {
  16:../../DaisySP/Source/Utility/delayline.h **** /** Simple Delay line.
  17:../../DaisySP/Source/Utility/delayline.h **** November 2019
  18:../../DaisySP/Source/Utility/delayline.h **** 
  19:../../DaisySP/Source/Utility/delayline.h **** Converted to Template December 2019
  20:../../DaisySP/Source/Utility/delayline.h **** 
  21:../../DaisySP/Source/Utility/delayline.h **** declaration example: (1 second of floats)
  22:../../DaisySP/Source/Utility/delayline.h **** 
  23:../../DaisySP/Source/Utility/delayline.h **** DelayLine<float, SAMPLE_RATE> del;
  24:../../DaisySP/Source/Utility/delayline.h **** 
  25:../../DaisySP/Source/Utility/delayline.h **** By: shensley
  26:../../DaisySP/Source/Utility/delayline.h **** */
ARM GAS  /tmp/cceKARlA.s 			page 12


  27:../../DaisySP/Source/Utility/delayline.h **** template <typename T, size_t max_size>
  28:../../DaisySP/Source/Utility/delayline.h **** class DelayLine
  29:../../DaisySP/Source/Utility/delayline.h **** {
  30:../../DaisySP/Source/Utility/delayline.h ****   public:
  31:../../DaisySP/Source/Utility/delayline.h ****     DelayLine() {}
  32:../../DaisySP/Source/Utility/delayline.h ****     ~DelayLine() {}
 154              		.loc 9 32 5 is_stmt 1 view -0
 155              		.cfi_startproc
 156              		@ args = 0, pretend = 0, frame = 0
 157              		@ frame_needed = 0, uses_anonymous_args = 0
 158              		@ link register save eliminated.
 159              		.loc 9 32 19 is_stmt 0 view .LVU17
 160 0000 7047     		bx	lr
 161              		.cfi_endproc
 162              	.LFE5262:
 164              		.weak	_ZN7daisysp9DelayLineIfLj36000EED1Ev
 165              		.thumb_set _ZN7daisysp9DelayLineIfLj36000EED1Ev,_ZN7daisysp9DelayLineIfLj36000EED2Ev
 166 0002 00BF     		.section	.text._ZL13AudioCallbackPKfPfj,"ax",%progbits
 167              		.align	1
 168              		.p2align 2,,3
 169              		.syntax unified
 170              		.thumb
 171              		.thumb_func
 172              		.fpu fpv5-d16
 174              	_ZL13AudioCallbackPKfPfj:
 175              	.LVL5:
 176              	.LFB4689:
 177              		.file 10 "Ouroboros.cpp"
   1:Ouroboros.cpp **** #include "daisysp.h"
   2:Ouroboros.cpp **** #include "daisy_seed.h"
   3:Ouroboros.cpp **** 
   4:Ouroboros.cpp **** // Interleaved audio definitions
   5:Ouroboros.cpp **** #define LEFT (i)
   6:Ouroboros.cpp **** #define RIGHT (i + 1)
   7:Ouroboros.cpp **** 
   8:Ouroboros.cpp **** // Set max delay time to 0.75 of samplerate.
   9:Ouroboros.cpp **** #define MAX_DELAY static_cast<size_t>(48000 * 0.75f)
  10:Ouroboros.cpp **** 
  11:Ouroboros.cpp **** // Use the daisy namespace to prevent having to type
  12:Ouroboros.cpp **** // daisy:: before all libdaisy functions
  13:Ouroboros.cpp **** using namespace daisysp;
  14:Ouroboros.cpp **** using namespace daisy;
  15:Ouroboros.cpp **** 
  16:Ouroboros.cpp **** // Declare a DaisySeed object called hardware
  17:Ouroboros.cpp **** DaisySeed hw;
  18:Ouroboros.cpp **** 
  19:Ouroboros.cpp **** AdcChannelConfig adcConfig[1];
  20:Ouroboros.cpp **** 
  21:Ouroboros.cpp **** // Helper Modules
  22:Ouroboros.cpp **** static AdEnv      env;
  23:Ouroboros.cpp **** static Oscillator osc;
  24:Ouroboros.cpp **** static Metro      tick;  
  25:Ouroboros.cpp **** 
  26:Ouroboros.cpp **** // Declare a DelayLine of MAX_DELAY number of floats.
  27:Ouroboros.cpp **** static DelayLine<float, MAX_DELAY> del;
  28:Ouroboros.cpp **** 
  29:Ouroboros.cpp **** static void AudioCallback(AudioHandle::InterleavingInputBuffer  in,
ARM GAS  /tmp/cceKARlA.s 			page 13


  30:Ouroboros.cpp ****                           AudioHandle::InterleavingOutputBuffer out,
  31:Ouroboros.cpp ****                           size_t                                size)
  32:Ouroboros.cpp **** {
 178              		.loc 10 32 1 is_stmt 1 view -0
 179              		.cfi_startproc
 180              		@ args = 0, pretend = 0, frame = 8
 181              		@ frame_needed = 0, uses_anonymous_args = 0
  33:Ouroboros.cpp ****     float osc_out, env_out, feedback, del_out, sig_out;
 182              		.loc 10 33 5 view .LVU19
  34:Ouroboros.cpp ****     for(size_t i = 0; i < size; i += 2)
 183              		.loc 10 34 5 view .LVU20
 184              	.LBB147:
 185              		.loc 10 34 25 view .LVU21
 186 0000 002A     		cmp	r2, #0
 187 0002 00F08580 		beq	.L19
 188 0006 013A     		subs	r2, r2, #1
 189              	.LVL6:
 190              		.loc 10 34 25 is_stmt 0 view .LVU22
 191              	.LBE147:
  32:Ouroboros.cpp ****     float osc_out, env_out, feedback, del_out, sig_out;
 192              		.loc 10 32 1 view .LVU23
 193 0008 2DE9F04F 		push	{r4, r5, r6, r7, r8, r9, r10, fp, lr}
 194              		.cfi_def_cfa_offset 36
 195              		.cfi_offset 4, -36
 196              		.cfi_offset 5, -32
 197              		.cfi_offset 6, -28
 198              		.cfi_offset 7, -24
 199              		.cfi_offset 8, -20
 200              		.cfi_offset 9, -16
 201              		.cfi_offset 10, -12
 202              		.cfi_offset 11, -8
 203              		.cfi_offset 14, -4
 204 000c 5308     		lsrs	r3, r2, #1
 205 000e 83B0     		sub	sp, sp, #12
 206              		.cfi_def_cfa_offset 48
 207 0010 0646     		mov	r6, r0
 208 0012 0C46     		mov	r4, r1
 209              	.LBB207:
 210              		.loc 10 34 25 view .LVU24
 211 0014 0025     		movs	r5, #0
 212 0016 DFF80081 		ldr	r8, .L23+4
 213 001a DFF81091 		ldr	r9, .L23+24
 214 001e 0193     		str	r3, [sp, #4]
 215 0020 4DE0     		b	.L10
 216              	.LVL7:
 217              	.L9:
 218              	.LBB148:
  35:Ouroboros.cpp ****     {
  36:Ouroboros.cpp ****         // When the Metro ticks:
  37:Ouroboros.cpp ****         // trigger the envelope to start, and change freq of oscillator.
  38:Ouroboros.cpp ****         if(tick.Process())
  39:Ouroboros.cpp ****         {
  40:Ouroboros.cpp ****             float freq = rand() % 200;
  41:Ouroboros.cpp ****             osc.SetFreq(freq + 100.0f);
  42:Ouroboros.cpp ****             env.Trigger();
  43:Ouroboros.cpp ****         }
  44:Ouroboros.cpp **** 
ARM GAS  /tmp/cceKARlA.s 			page 14


  45:Ouroboros.cpp ****         // Use envelope to control the amplitude of the oscillator.
  46:Ouroboros.cpp ****         env_out = env.Process();
 219              		.loc 10 46 9 is_stmt 1 discriminator 2 view .LVU25
 220              		.loc 10 46 30 is_stmt 0 discriminator 2 view .LVU26
 221 0022 3C48     		ldr	r0, .L23
 222              	.LBE148:
  34:Ouroboros.cpp ****     {
 223              		.loc 10 34 25 discriminator 2 view .LVU27
 224 0024 0834     		adds	r4, r4, #8
 225              	.LBB202:
 226              		.loc 10 46 30 discriminator 2 view .LVU28
 227 0026 FFF7FEFF 		bl	_ZN7daisysp5AdEnv7ProcessEv
 228              	.LVL8:
  47:Ouroboros.cpp ****         osc.SetAmp(env_out);
 229              		.loc 10 47 9 is_stmt 1 discriminator 2 view .LVU29
 230              	.LBB149:
 231              	.LBI149:
  25:../../DaisySP/Source/Synthesis/oscillator.h ****     /** Choices for output waveforms, POLYBLEP are appropriately labeled. Others are naive forms.
  26:../../DaisySP/Source/Synthesis/oscillator.h ****     */
  27:../../DaisySP/Source/Synthesis/oscillator.h ****     enum
  28:../../DaisySP/Source/Synthesis/oscillator.h ****     {
  29:../../DaisySP/Source/Synthesis/oscillator.h ****         WAVE_SIN,
  30:../../DaisySP/Source/Synthesis/oscillator.h ****         WAVE_TRI,
  31:../../DaisySP/Source/Synthesis/oscillator.h ****         WAVE_SAW,
  32:../../DaisySP/Source/Synthesis/oscillator.h ****         WAVE_RAMP,
  33:../../DaisySP/Source/Synthesis/oscillator.h ****         WAVE_SQUARE,
  34:../../DaisySP/Source/Synthesis/oscillator.h ****         WAVE_POLYBLEP_TRI,
  35:../../DaisySP/Source/Synthesis/oscillator.h ****         WAVE_POLYBLEP_SAW,
  36:../../DaisySP/Source/Synthesis/oscillator.h ****         WAVE_POLYBLEP_SQUARE,
  37:../../DaisySP/Source/Synthesis/oscillator.h ****         WAVE_LAST,
  38:../../DaisySP/Source/Synthesis/oscillator.h ****     };
  39:../../DaisySP/Source/Synthesis/oscillator.h **** 
  40:../../DaisySP/Source/Synthesis/oscillator.h **** 
  41:../../DaisySP/Source/Synthesis/oscillator.h ****     /** Initializes the Oscillator
  42:../../DaisySP/Source/Synthesis/oscillator.h **** 
  43:../../DaisySP/Source/Synthesis/oscillator.h ****         \param sample_rate - sample rate of the audio engine being run, and the frequency that the 
  44:../../DaisySP/Source/Synthesis/oscillator.h **** 
  45:../../DaisySP/Source/Synthesis/oscillator.h ****         Defaults:
  46:../../DaisySP/Source/Synthesis/oscillator.h ****         - freq_ = 100 Hz
  47:../../DaisySP/Source/Synthesis/oscillator.h ****         - amp_ = 0.5
  48:../../DaisySP/Source/Synthesis/oscillator.h ****         - waveform_ = sine wave.
  49:../../DaisySP/Source/Synthesis/oscillator.h ****     */
  50:../../DaisySP/Source/Synthesis/oscillator.h ****     void Init(float sample_rate)
  51:../../DaisySP/Source/Synthesis/oscillator.h ****     {
  52:../../DaisySP/Source/Synthesis/oscillator.h ****         sr_        = sample_rate;
  53:../../DaisySP/Source/Synthesis/oscillator.h ****         sr_recip_  = 1.0f / sample_rate;
  54:../../DaisySP/Source/Synthesis/oscillator.h ****         freq_      = 100.0f;
  55:../../DaisySP/Source/Synthesis/oscillator.h ****         amp_       = 0.5f;
  56:../../DaisySP/Source/Synthesis/oscillator.h ****         pw_        = 0.5f;
  57:../../DaisySP/Source/Synthesis/oscillator.h ****         phase_     = 0.0f;
  58:../../DaisySP/Source/Synthesis/oscillator.h ****         phase_inc_ = CalcPhaseInc(freq_);
  59:../../DaisySP/Source/Synthesis/oscillator.h ****         waveform_  = WAVE_SIN;
  60:../../DaisySP/Source/Synthesis/oscillator.h ****         eoc_       = true;
  61:../../DaisySP/Source/Synthesis/oscillator.h ****         eor_       = true;
  62:../../DaisySP/Source/Synthesis/oscillator.h ****     }
  63:../../DaisySP/Source/Synthesis/oscillator.h **** 
  64:../../DaisySP/Source/Synthesis/oscillator.h **** 
ARM GAS  /tmp/cceKARlA.s 			page 15


  65:../../DaisySP/Source/Synthesis/oscillator.h ****     /** Changes the frequency of the Oscillator, and recalculates phase increment.
  66:../../DaisySP/Source/Synthesis/oscillator.h ****     */
  67:../../DaisySP/Source/Synthesis/oscillator.h ****     inline void SetFreq(const float f)
  68:../../DaisySP/Source/Synthesis/oscillator.h ****     {
  69:../../DaisySP/Source/Synthesis/oscillator.h ****         freq_      = f;
  70:../../DaisySP/Source/Synthesis/oscillator.h ****         phase_inc_ = CalcPhaseInc(f);
  71:../../DaisySP/Source/Synthesis/oscillator.h ****     }
  72:../../DaisySP/Source/Synthesis/oscillator.h **** 
  73:../../DaisySP/Source/Synthesis/oscillator.h **** 
  74:../../DaisySP/Source/Synthesis/oscillator.h ****     /** Sets the amplitude of the waveform.
  75:../../DaisySP/Source/Synthesis/oscillator.h ****     */
  76:../../DaisySP/Source/Synthesis/oscillator.h ****     inline void SetAmp(const float a) { amp_ = a; }
 232              		.loc 2 76 17 discriminator 2 view .LVU30
 233              	.LBB150:
 234              		.loc 2 76 41 discriminator 2 view .LVU31
 235              	.LBE150:
 236              	.LBE149:
  48:Ouroboros.cpp ****         osc_out = osc.Process();
 237              		.loc 10 48 30 is_stmt 0 discriminator 2 view .LVU32
 238 002a 3B48     		ldr	r0, .L23+4
 239              	.LBB152:
 240              	.LBB151:
 241              		.loc 2 76 46 discriminator 2 view .LVU33
 242 002c 88ED010A 		vstr.32	s0, [r8, #4]
 243              	.LVL9:
 244              		.loc 2 76 46 discriminator 2 view .LVU34
 245              	.LBE151:
 246              	.LBE152:
 247              		.loc 10 48 9 is_stmt 1 discriminator 2 view .LVU35
 248              		.loc 10 48 30 is_stmt 0 discriminator 2 view .LVU36
 249 0030 FFF7FEFF 		bl	_ZN7daisysp10Oscillator7ProcessEv
 250              	.LVL10:
  49:Ouroboros.cpp **** 
  50:Ouroboros.cpp ****         // Read from delay line
  51:Ouroboros.cpp ****         del_out = del.Read();
 251              		.loc 10 51 9 is_stmt 1 discriminator 2 view .LVU37
 252              	.LBB153:
 253              	.LBI153:
  33:../../DaisySP/Source/Utility/delayline.h ****     /** initializes the delay line by clearing the values within, and setting delay to 1 sample.
  34:../../DaisySP/Source/Utility/delayline.h ****     */
  35:../../DaisySP/Source/Utility/delayline.h ****     void Init() { Reset(); }
  36:../../DaisySP/Source/Utility/delayline.h ****     /** clears buffer, sets write ptr to 0, and delay to 1 sample.
  37:../../DaisySP/Source/Utility/delayline.h ****     */
  38:../../DaisySP/Source/Utility/delayline.h ****     void Reset()
  39:../../DaisySP/Source/Utility/delayline.h ****     {
  40:../../DaisySP/Source/Utility/delayline.h ****         for(size_t i = 0; i < max_size; i++)
  41:../../DaisySP/Source/Utility/delayline.h ****         {
  42:../../DaisySP/Source/Utility/delayline.h ****             line_[i] = T(0);
  43:../../DaisySP/Source/Utility/delayline.h ****         }
  44:../../DaisySP/Source/Utility/delayline.h ****         write_ptr_ = 0;
  45:../../DaisySP/Source/Utility/delayline.h ****         delay_     = 1;
  46:../../DaisySP/Source/Utility/delayline.h ****     }
  47:../../DaisySP/Source/Utility/delayline.h **** 
  48:../../DaisySP/Source/Utility/delayline.h ****     /** sets the delay time in samples
  49:../../DaisySP/Source/Utility/delayline.h ****         If a float is passed in, a fractional component will be calculated for interpolating the de
  50:../../DaisySP/Source/Utility/delayline.h ****     */
  51:../../DaisySP/Source/Utility/delayline.h ****     inline void SetDelay(size_t delay)
ARM GAS  /tmp/cceKARlA.s 			page 16


  52:../../DaisySP/Source/Utility/delayline.h ****     {
  53:../../DaisySP/Source/Utility/delayline.h ****         frac_  = 0.0f;
  54:../../DaisySP/Source/Utility/delayline.h ****         delay_ = delay < max_size ? delay : max_size - 1;
  55:../../DaisySP/Source/Utility/delayline.h ****     }
  56:../../DaisySP/Source/Utility/delayline.h **** 
  57:../../DaisySP/Source/Utility/delayline.h ****     /** sets the delay time in samples
  58:../../DaisySP/Source/Utility/delayline.h ****         If a float is passed in, a fractional component will be calculated for interpolating the de
  59:../../DaisySP/Source/Utility/delayline.h ****     */
  60:../../DaisySP/Source/Utility/delayline.h ****     inline void SetDelay(float delay)
  61:../../DaisySP/Source/Utility/delayline.h ****     {
  62:../../DaisySP/Source/Utility/delayline.h ****         int32_t int_delay = static_cast<int32_t>(delay);
  63:../../DaisySP/Source/Utility/delayline.h ****         frac_             = delay - static_cast<float>(int_delay);
  64:../../DaisySP/Source/Utility/delayline.h ****         delay_ = static_cast<size_t>(int_delay) < max_size ? int_delay
  65:../../DaisySP/Source/Utility/delayline.h ****                                                            : max_size - 1;
  66:../../DaisySP/Source/Utility/delayline.h ****     }
  67:../../DaisySP/Source/Utility/delayline.h **** 
  68:../../DaisySP/Source/Utility/delayline.h ****     /** writes the sample of type T to the delay line, and advances the write ptr
  69:../../DaisySP/Source/Utility/delayline.h ****     */
  70:../../DaisySP/Source/Utility/delayline.h ****     inline void Write(const T sample)
  71:../../DaisySP/Source/Utility/delayline.h ****     {
  72:../../DaisySP/Source/Utility/delayline.h ****         line_[write_ptr_] = sample;
  73:../../DaisySP/Source/Utility/delayline.h ****         write_ptr_        = (write_ptr_ - 1 + max_size) % max_size;
  74:../../DaisySP/Source/Utility/delayline.h ****     }
  75:../../DaisySP/Source/Utility/delayline.h **** 
  76:../../DaisySP/Source/Utility/delayline.h ****     /** returns the next sample of type T in the delay line, interpolated if necessary.
  77:../../DaisySP/Source/Utility/delayline.h ****     */
  78:../../DaisySP/Source/Utility/delayline.h ****     inline const T Read() const
 254              		.loc 9 78 20 discriminator 2 view .LVU38
 255              	.LBB154:
  79:../../DaisySP/Source/Utility/delayline.h ****     {
  80:../../DaisySP/Source/Utility/delayline.h ****         T a = line_[(write_ptr_ + delay_) % max_size];
 256              		.loc 9 80 43 is_stmt 0 discriminator 2 view .LVU39
 257 0034 3949     		ldr	r1, .L23+8
 258 0036 48F6A04E 		movw	lr, #36000
  81:../../DaisySP/Source/Utility/delayline.h ****         T b = line_[(write_ptr_ + delay_ + 1) % max_size];
  82:../../DaisySP/Source/Utility/delayline.h ****         return a + (b - a) * frac_;
 259              		.loc 9 82 30 discriminator 2 view .LVU40
 260 003a D9ED005A 		vldr.32	s11, [r9]
 261              	.LBE154:
 262              	.LBE153:
 263              	.LBB165:
 264              	.LBB166:
  73:../../DaisySP/Source/Utility/delayline.h ****     }
 265              		.loc 9 73 45 discriminator 2 view .LVU41
 266 003e 48F69F40 		movw	r0, #35999
 267              	.LBE166:
 268              	.LBE165:
  52:Ouroboros.cpp ****         // Calculate output and feedback
  53:Ouroboros.cpp ****         sig_out  = del_out + in[i];
  54:Ouroboros.cpp ****         feedback = (del_out * 0.75f) + in[i];
 269              		.loc 10 54 18 discriminator 2 view .LVU42
 270 0042 B6EE086A 		vmov.f32	s12, #7.5e-1
 271              	.LBB173:
 272              	.LBB155:
  80:../../DaisySP/Source/Utility/delayline.h ****         T b = line_[(write_ptr_ + delay_ + 1) % max_size];
 273              		.loc 9 80 33 discriminator 2 view .LVU43
 274 0046 D9E901C3 		ldrd	ip, r3, [r9, #4]
ARM GAS  /tmp/cceKARlA.s 			page 17


 275 004a 0CEB030A 		add	r10, ip, r3
 276              	.LBE155:
 277              	.LBE173:
 278              	.LBB174:
 279              	.LBB167:
  73:../../DaisySP/Source/Utility/delayline.h ****     }
 280              		.loc 9 73 45 discriminator 2 view .LVU44
 281 004e 6044     		add	r0, r0, ip
  72:../../DaisySP/Source/Utility/delayline.h ****         write_ptr_        = (write_ptr_ - 1 + max_size) % max_size;
 282              		.loc 9 72 27 discriminator 2 view .LVU45
 283 0050 09EB8C0C 		add	ip, r9, ip, lsl #2
 284              	.LBE167:
 285              	.LBE174:
 286              	.LBB175:
 287              	.LBB156:
  80:../../DaisySP/Source/Utility/delayline.h ****         T b = line_[(write_ptr_ + delay_ + 1) % max_size];
 288              		.loc 9 80 43 discriminator 2 view .LVU46
 289 0054 A1FB0A32 		umull	r3, r2, r1, r10
  81:../../DaisySP/Source/Utility/delayline.h ****         return a + (b - a) * frac_;
 290              		.loc 9 81 42 discriminator 2 view .LVU47
 291 0058 0AF1010B 		add	fp, r10, #1
 292              	.LBE156:
 293              	.LBE175:
  53:Ouroboros.cpp ****         feedback = (del_out * 0.75f) + in[i];
 294              		.loc 10 53 34 discriminator 2 view .LVU48
 295 005c 3346     		mov	r3, r6
 296 005e 0836     		adds	r6, r6, #8
 297              	.LBB176:
 298              	.LBB157:
  80:../../DaisySP/Source/Utility/delayline.h ****         T b = line_[(write_ptr_ + delay_ + 1) % max_size];
 299              		.loc 9 80 43 discriminator 2 view .LVU49
 300 0060 D20B     		lsrs	r2, r2, #15
 301              	.LBE157:
 302              	.LBE176:
  53:Ouroboros.cpp ****         feedback = (del_out * 0.75f) + in[i];
 303              		.loc 10 53 34 discriminator 2 view .LVU50
 304 0062 93ED007A 		vldr.32	s14, [r3]
 305              	.LBB177:
 306              	.LBB158:
  81:../../DaisySP/Source/Utility/delayline.h ****         return a + (b - a) * frac_;
 307              		.loc 9 81 47 discriminator 2 view .LVU51
 308 0066 A1FB0B73 		umull	r7, r3, r1, fp
  80:../../DaisySP/Source/Utility/delayline.h ****         T b = line_[(write_ptr_ + delay_ + 1) % max_size];
 309              		.loc 9 80 43 discriminator 2 view .LVU52
 310 006a 0EFB12A2 		mls	r2, lr, r2, r10
 311              	.LBE158:
 312              	.LBE177:
 313              	.LBE202:
  34:Ouroboros.cpp ****     {
 314              		.loc 10 34 25 discriminator 2 view .LVU53
 315 006e 05F1010A 		add	r10, r5, #1
 316              	.LBB203:
 317              	.LBB178:
 318              	.LBB159:
  81:../../DaisySP/Source/Utility/delayline.h ****         return a + (b - a) * frac_;
 319              		.loc 9 81 47 discriminator 2 view .LVU54
 320 0072 DB0B     		lsrs	r3, r3, #15
ARM GAS  /tmp/cceKARlA.s 			page 18


 321              	.LBE159:
 322              	.LBE178:
 323              	.LBB179:
 324              	.LBB168:
  73:../../DaisySP/Source/Utility/delayline.h ****     }
 325              		.loc 9 73 57 discriminator 2 view .LVU55
 326 0074 A1FB0071 		umull	r7, r1, r1, r0
 327              	.LBE168:
 328              	.LBE179:
 329              	.LBB180:
 330              	.LBB160:
  80:../../DaisySP/Source/Utility/delayline.h ****         T b = line_[(write_ptr_ + delay_ + 1) % max_size];
 331              		.loc 9 80 11 discriminator 2 view .LVU56
 332 0078 09EB8202 		add	r2, r9, r2, lsl #2
  81:../../DaisySP/Source/Utility/delayline.h ****         return a + (b - a) * frac_;
 333              		.loc 9 81 47 discriminator 2 view .LVU57
 334 007c 0EFB13B3 		mls	r3, lr, r3, fp
 335              	.LBE160:
 336              	.LBE180:
 337              	.LBB181:
 338              	.LBB169:
  73:../../DaisySP/Source/Utility/delayline.h ****     }
 339              		.loc 9 73 57 discriminator 2 view .LVU58
 340 0080 C90B     		lsrs	r1, r1, #15
 341              	.LBE169:
 342              	.LBE181:
 343              	.LBB182:
 344              	.LBB161:
  80:../../DaisySP/Source/Utility/delayline.h ****         T b = line_[(write_ptr_ + delay_ + 1) % max_size];
 345              		.loc 9 80 11 discriminator 2 view .LVU59
 346 0082 D2ED037A 		vldr.32	s15, [r2, #12]
 347              	.LVL11:
  81:../../DaisySP/Source/Utility/delayline.h ****         return a + (b - a) * frac_;
 348              		.loc 9 81 11 discriminator 2 view .LVU60
 349 0086 09EB8303 		add	r3, r9, r3, lsl #2
 350              	.LBE161:
 351              	.LBE182:
 352              	.LBB183:
 353              	.LBB170:
  73:../../DaisySP/Source/Utility/delayline.h ****     }
 354              		.loc 9 73 57 discriminator 2 view .LVU61
 355 008a 0EFB1100 		mls	r0, lr, r1, r0
 356              	.LBE170:
 357              	.LBE183:
 358              	.LBB184:
 359              	.LBB162:
 360              		.loc 9 82 23 discriminator 2 view .LVU62
 361 008e D3ED036A 		vldr.32	s13, [r3, #12]
 362              	.LBE162:
 363              	.LBE184:
 364              	.LBE203:
  34:Ouroboros.cpp ****     {
 365              		.loc 10 34 25 discriminator 2 view .LVU63
 366 0092 019B     		ldr	r3, [sp, #4]
 367              	.LBB204:
 368              	.LBB185:
 369              	.LBB163:
ARM GAS  /tmp/cceKARlA.s 			page 19


 370              		.loc 9 82 23 discriminator 2 view .LVU64
 371 0094 76EEE76A 		vsub.f32	s13, s13, s15
 372              	.LBE163:
 373              	.LBE185:
 374              	.LBB186:
 375              	.LBB171:
  73:../../DaisySP/Source/Utility/delayline.h ****     }
 376              		.loc 9 73 27 discriminator 2 view .LVU65
 377 0098 C9F80400 		str	r0, [r9, #4]
 378              	.LBE171:
 379              	.LBE186:
 380              	.LBE204:
  34:Ouroboros.cpp ****     {
 381              		.loc 10 34 25 discriminator 2 view .LVU66
 382 009c 9D42     		cmp	r5, r3
 383 009e 5546     		mov	r5, r10
 384              	.LVL12:
 385              	.LBB205:
 386              	.LBB187:
 387              	.LBB164:
 388              		.loc 9 82 30 discriminator 2 view .LVU67
 389 00a0 E6EEA57A 		vfma.f32	s15, s13, s11
 390              	.LVL13:
 391              		.loc 9 82 30 discriminator 2 view .LVU68
 392              	.LBE164:
 393              	.LBE187:
  53:Ouroboros.cpp ****         feedback = (del_out * 0.75f) + in[i];
 394              		.loc 10 53 9 is_stmt 1 discriminator 2 view .LVU69
 395              		.loc 10 54 18 is_stmt 0 discriminator 2 view .LVU70
 396 00a4 F0EE476A 		vmov.f32	s13, s14
 397 00a8 E7EE866A 		vfma.f32	s13, s15, s12
  53:Ouroboros.cpp ****         feedback = (del_out * 0.75f) + in[i];
 398              		.loc 10 53 18 discriminator 2 view .LVU71
 399 00ac 77EE277A 		vadd.f32	s15, s14, s15
 400              	.LVL14:
 401              		.loc 10 54 9 is_stmt 1 discriminator 2 view .LVU72
  55:Ouroboros.cpp **** 
  56:Ouroboros.cpp ****         // Write to the delay
  57:Ouroboros.cpp ****         del.Write(feedback);
 402              		.loc 10 57 9 discriminator 2 view .LVU73
 403              	.LBB188:
 404              	.LBI165:
  70:../../DaisySP/Source/Utility/delayline.h ****     {
 405              		.loc 9 70 17 discriminator 2 view .LVU74
  70:../../DaisySP/Source/Utility/delayline.h ****     {
 406              		.loc 9 70 17 is_stmt 0 discriminator 2 view .LVU75
 407              	.LBE188:
  58:Ouroboros.cpp **** 
  59:Ouroboros.cpp ****         // Output
  60:Ouroboros.cpp ****         out[LEFT]  = sig_out;
 408              		.loc 10 60 9 is_stmt 1 discriminator 2 view .LVU76
 409              	.LBB189:
 410              	.LBB172:
  72:../../DaisySP/Source/Utility/delayline.h ****         write_ptr_        = (write_ptr_ - 1 + max_size) % max_size;
 411              		.loc 9 72 27 is_stmt 0 discriminator 2 view .LVU77
 412 00b0 CCED036A 		vstr.32	s13, [ip, #12]
 413              	.LVL15:
ARM GAS  /tmp/cceKARlA.s 			page 20


  72:../../DaisySP/Source/Utility/delayline.h ****         write_ptr_        = (write_ptr_ - 1 + max_size) % max_size;
 414              		.loc 9 72 27 discriminator 2 view .LVU78
 415              	.LBE172:
 416              	.LBE189:
 417              		.loc 10 60 20 discriminator 2 view .LVU79
 418 00b4 44ED027A 		vstr.32	s15, [r4, #-8]
  61:Ouroboros.cpp ****         out[RIGHT] = sig_out;
 419              		.loc 10 61 9 is_stmt 1 discriminator 2 view .LVU80
 420              		.loc 10 61 20 is_stmt 0 discriminator 2 view .LVU81
 421 00b8 44ED017A 		vstr.32	s15, [r4, #-4]
 422              	.LBE205:
  34:Ouroboros.cpp ****     {
 423              		.loc 10 34 5 is_stmt 1 discriminator 2 view .LVU82
 424              	.LVL16:
  34:Ouroboros.cpp ****     {
 425              		.loc 10 34 25 discriminator 2 view .LVU83
 426 00bc 25D0     		beq	.L22
 427              	.LVL17:
 428              	.L10:
 429              	.LBB206:
  38:Ouroboros.cpp ****         {
 430              		.loc 10 38 9 view .LVU84
 431              	.LBB190:
  38:Ouroboros.cpp ****         {
 432              		.loc 10 38 24 is_stmt 0 view .LVU85
 433 00be 1848     		ldr	r0, .L23+12
 434 00c0 FFF7FEFF 		bl	_ZN7daisysp5Metro7ProcessEv
 435              	.LVL18:
  38:Ouroboros.cpp ****         {
 436              		.loc 10 38 9 view .LVU86
 437 00c4 0028     		cmp	r0, #0
 438 00c6 ACD0     		beq	.L9
 439              	.LBB191:
  40:Ouroboros.cpp ****             osc.SetFreq(freq + 100.0f);
 440              		.loc 10 40 13 is_stmt 1 view .LVU87
  40:Ouroboros.cpp ****             osc.SetFreq(freq + 100.0f);
 441              		.loc 10 40 30 is_stmt 0 view .LVU88
 442 00c8 FFF7FEFF 		bl	rand
 443              	.LVL19:
  40:Ouroboros.cpp ****             osc.SetFreq(freq + 100.0f);
 444              		.loc 10 40 33 view .LVU89
 445 00cc 1549     		ldr	r1, .L23+16
  40:Ouroboros.cpp ****             osc.SetFreq(freq + 100.0f);
 446              		.loc 10 40 30 view .LVU90
 447 00ce 0346     		mov	r3, r0
 448              	.LVL20:
  41:Ouroboros.cpp ****             env.Trigger();
 449              		.loc 10 41 13 is_stmt 1 view .LVU91
  40:Ouroboros.cpp ****             osc.SetFreq(freq + 100.0f);
 450              		.loc 10 40 33 is_stmt 0 view .LVU92
 451 00d0 4FF0C80C 		mov	ip, #200
  41:Ouroboros.cpp ****             env.Trigger();
 452              		.loc 10 41 24 view .LVU93
 453 00d4 DFED147A 		vldr.32	s15, .L23+20
  40:Ouroboros.cpp ****             osc.SetFreq(freq + 100.0f);
 454              		.loc 10 40 33 view .LVU94
 455 00d8 81FB0321 		smull	r2, r1, r1, r3
ARM GAS  /tmp/cceKARlA.s 			page 21


 456 00dc DA17     		asrs	r2, r3, #31
 457              	.LBB192:
 458              	.LBB193:
  70:../../DaisySP/Source/Synthesis/oscillator.h ****     }
 459              		.loc 2 70 34 view .LVU95
 460 00de 0E48     		ldr	r0, .L23+4
 461              	.LVL21:
  70:../../DaisySP/Source/Synthesis/oscillator.h ****     }
 462              		.loc 2 70 34 view .LVU96
 463              	.LBE193:
 464              	.LBE192:
  40:Ouroboros.cpp ****             osc.SetFreq(freq + 100.0f);
 465              		.loc 10 40 33 view .LVU97
 466 00e0 C2EBA112 		rsb	r2, r2, r1, asr #6
 467 00e4 0CFB1233 		mls	r3, ip, r2, r3
 468              	.LVL22:
  40:Ouroboros.cpp ****             osc.SetFreq(freq + 100.0f);
 469              		.loc 10 40 33 view .LVU98
 470 00e8 00EE103A 		vmov	s0, r3	@ int
  40:Ouroboros.cpp ****             osc.SetFreq(freq + 100.0f);
 471              		.loc 10 40 35 view .LVU99
 472 00ec B8EEC00A 		vcvt.f32.s32	s0, s0
  41:Ouroboros.cpp ****             env.Trigger();
 473              		.loc 10 41 24 view .LVU100
 474 00f0 30EE270A 		vadd.f32	s0, s0, s15
 475              	.LVL23:
 476              	.LBB196:
 477              	.LBI192:
  67:../../DaisySP/Source/Synthesis/oscillator.h ****     {
 478              		.loc 2 67 17 is_stmt 1 view .LVU101
 479              	.LBB194:
  69:../../DaisySP/Source/Synthesis/oscillator.h ****         phase_inc_ = CalcPhaseInc(f);
 480              		.loc 2 69 9 view .LVU102
  69:../../DaisySP/Source/Synthesis/oscillator.h ****         phase_inc_ = CalcPhaseInc(f);
 481              		.loc 2 69 20 is_stmt 0 view .LVU103
 482 00f4 88ED020A 		vstr.32	s0, [r8, #8]
  70:../../DaisySP/Source/Synthesis/oscillator.h ****     }
 483              		.loc 2 70 9 is_stmt 1 view .LVU104
  70:../../DaisySP/Source/Synthesis/oscillator.h ****     }
 484              		.loc 2 70 34 is_stmt 0 view .LVU105
 485 00f8 FFF7FEFF 		bl	_ZN7daisysp10Oscillator12CalcPhaseIncEf
 486              	.LVL24:
  70:../../DaisySP/Source/Synthesis/oscillator.h ****     }
 487              		.loc 2 70 34 view .LVU106
 488              	.LBE194:
 489              	.LBE196:
 490              	.LBB197:
 491              	.LBB198:
  44:../../DaisySP/Source/Control/adenv.h ****     /** Initializes the ad envelope.
  45:../../DaisySP/Source/Control/adenv.h **** 
  46:../../DaisySP/Source/Control/adenv.h ****         Defaults:
  47:../../DaisySP/Source/Control/adenv.h ****             - current segment = idle
  48:../../DaisySP/Source/Control/adenv.h ****             - curve = linear
  49:../../DaisySP/Source/Control/adenv.h ****             - phase = 0
  50:../../DaisySP/Source/Control/adenv.h ****             - min = 0
  51:../../DaisySP/Source/Control/adenv.h ****             - max = 1
  52:../../DaisySP/Source/Control/adenv.h **** 
ARM GAS  /tmp/cceKARlA.s 			page 22


  53:../../DaisySP/Source/Control/adenv.h ****         \param sample_rate      sample rate of the audio engine being run
  54:../../DaisySP/Source/Control/adenv.h ****     */
  55:../../DaisySP/Source/Control/adenv.h ****     void Init(float sample_rate);
  56:../../DaisySP/Source/Control/adenv.h **** 
  57:../../DaisySP/Source/Control/adenv.h ****     /** Processes the current sample of the envelope. This should be called once
  58:../../DaisySP/Source/Control/adenv.h ****         per sample period.
  59:../../DaisySP/Source/Control/adenv.h ****         \return the current envelope value.
  60:../../DaisySP/Source/Control/adenv.h ****     */
  61:../../DaisySP/Source/Control/adenv.h ****     float Process();
  62:../../DaisySP/Source/Control/adenv.h **** 
  63:../../DaisySP/Source/Control/adenv.h ****     /** Starts or retriggers the envelope.*/
  64:../../DaisySP/Source/Control/adenv.h ****     inline void Trigger() { trigger_ = 1; }
 492              		.loc 1 64 38 view .LVU107
 493 00fc 054B     		ldr	r3, .L23
 494 00fe 0122     		movs	r2, #1
 495              	.LBE198:
 496              	.LBE197:
 497              	.LBB200:
 498              	.LBB195:
  70:../../DaisySP/Source/Synthesis/oscillator.h ****     }
 499              		.loc 2 70 20 view .LVU108
 500 0100 88ED070A 		vstr.32	s0, [r8, #28]
 501              	.LVL25:
  70:../../DaisySP/Source/Synthesis/oscillator.h ****     }
 502              		.loc 2 70 20 view .LVU109
 503              	.LBE195:
 504              	.LBE200:
  42:Ouroboros.cpp ****         }
 505              		.loc 10 42 13 is_stmt 1 view .LVU110
 506              	.LBB201:
 507              	.LBI197:
 508              		.loc 1 64 17 view .LVU111
 509              	.LBB199:
 510              		.loc 1 64 29 view .LVU112
 511              		.loc 1 64 38 is_stmt 0 view .LVU113
 512 0104 83F83420 		strb	r2, [r3, #52]
 513              		.loc 1 64 43 view .LVU114
 514 0108 8BE7     		b	.L9
 515              	.LVL26:
 516              	.L22:
 517              		.loc 1 64 43 view .LVU115
 518              	.LBE199:
 519              	.LBE201:
 520              	.LBE191:
 521              	.LBE190:
 522              	.LBE206:
 523              	.LBE207:
  62:Ouroboros.cpp ****     }
  63:Ouroboros.cpp **** }
 524              		.loc 10 63 1 view .LVU116
 525 010a 03B0     		add	sp, sp, #12
 526              		.cfi_def_cfa_offset 36
 527              		@ sp needed
 528 010c BDE8F08F 		pop	{r4, r5, r6, r7, r8, r9, r10, fp, pc}
 529              	.LVL27:
 530              	.L19:
 531              		.cfi_def_cfa_offset 0
ARM GAS  /tmp/cceKARlA.s 			page 23


 532              		.cfi_restore 4
 533              		.cfi_restore 5
 534              		.cfi_restore 6
 535              		.cfi_restore 7
 536              		.cfi_restore 8
 537              		.cfi_restore 9
 538              		.cfi_restore 10
 539              		.cfi_restore 11
 540              		.cfi_restore 14
 541              		.loc 10 63 1 view .LVU117
 542 0110 7047     		bx	lr
 543              	.L24:
 544 0112 00BF     		.align	2
 545              	.L23:
 546 0114 00000000 		.word	.LANCHOR2
 547 0118 00000000 		.word	.LANCHOR1
 548 011c D55204E9 		.word	-385592619
 549 0120 00000000 		.word	.LANCHOR0
 550 0124 1F85EB51 		.word	1374389535
 551 0128 0000C842 		.word	1120403456
 552 012c 00000000 		.word	_ZL3del
 553              		.cfi_endproc
 554              	.LFE4689:
 556              		.section	.text.startup.main,"ax",%progbits
 557              		.align	1
 558              		.p2align 2,,3
 559              		.global	main
 560              		.syntax unified
 561              		.thumb
 562              		.thumb_func
 563              		.fpu fpv5-d16
 565              	main:
 566              	.LFB4690:
  64:Ouroboros.cpp **** 
  65:Ouroboros.cpp **** int main(void)
  66:Ouroboros.cpp **** {
 567              		.loc 10 66 1 is_stmt 1 view -0
 568              		.cfi_startproc
 569              		@ args = 0, pretend = 0, frame = 8
 570              		@ frame_needed = 0, uses_anonymous_args = 0
  67:Ouroboros.cpp ****     // Declare a variable to store the state we want to set for the LED.
  68:Ouroboros.cpp ****     bool led_state;
 571              		.loc 10 68 5 view .LVU119
  69:Ouroboros.cpp ****     led_state = true;
 572              		.loc 10 69 5 view .LVU120
 573              	.LVL28:
  70:Ouroboros.cpp **** 
  71:Ouroboros.cpp ****     // initialize seed hardware and daisysp modules
  72:Ouroboros.cpp ****     float sample_rate;
 574              		.loc 10 72 5 view .LVU121
  73:Ouroboros.cpp ****     hw.Configure();
 575              		.loc 10 73 5 view .LVU122
  66:Ouroboros.cpp ****     // Declare a variable to store the state we want to set for the LED.
 576              		.loc 10 66 1 is_stmt 0 view .LVU123
 577 0000 2DE9F047 		push	{r4, r5, r6, r7, r8, r9, r10, lr}
 578              		.cfi_def_cfa_offset 32
 579              		.cfi_offset 4, -32
ARM GAS  /tmp/cceKARlA.s 			page 24


 580              		.cfi_offset 5, -28
 581              		.cfi_offset 6, -24
 582              		.cfi_offset 7, -20
 583              		.cfi_offset 8, -16
 584              		.cfi_offset 9, -12
 585              		.cfi_offset 10, -8
 586              		.cfi_offset 14, -4
 587              		.loc 10 73 17 view .LVU124
 588 0004 6148     		ldr	r0, .L28
 589              	.LBB236:
 590              	.LBB237:
  55:../../DaisySP/Source/Synthesis/oscillator.h ****         pw_        = 0.5f;
 591              		.loc 2 55 20 view .LVU125
 592 0006 4FF07C59 		mov	r9, #1056964608
 593              	.LBE237:
 594              	.LBE236:
  74:Ouroboros.cpp ****     hw.Init();
  75:Ouroboros.cpp ****     hw.SetAudioBlockSize(4);
  76:Ouroboros.cpp ****     sample_rate = hw.AudioSampleRate();
  77:Ouroboros.cpp ****     env.Init(sample_rate);
 595              		.loc 10 77 13 view .LVU126
 596 000a 614F     		ldr	r7, .L28+4
 597              	.LBB243:
 598              	.LBB238:
  59:../../DaisySP/Source/Synthesis/oscillator.h ****         eoc_       = true;
 599              		.loc 2 59 20 view .LVU127
 600 000c 4FF0000A 		mov	r10, #0
  52:../../DaisySP/Source/Synthesis/oscillator.h ****         sr_recip_  = 1.0f / sample_rate;
 601              		.loc 2 52 20 view .LVU128
 602 0010 604E     		ldr	r6, .L28+8
 603              	.LBE238:
 604              	.LBE243:
 605              	.LBB244:
 606              	.LBB245:
 607              	.LBB246:
  45:../../DaisySP/Source/Utility/delayline.h ****     }
 608              		.loc 9 45 20 view .LVU129
 609 0012 0124     		movs	r4, #1
 610              	.LBB247:
  42:../../DaisySP/Source/Utility/delayline.h ****         }
 611              		.loc 9 42 22 view .LVU130
 612 0014 DFF8AC81 		ldr	r8, .L28+56
 613              	.LBE247:
 614              	.LBE246:
 615              	.LBE245:
 616              	.LBE244:
  66:Ouroboros.cpp ****     // Declare a variable to store the state we want to set for the LED.
 617              		.loc 10 66 1 view .LVU131
 618 0018 2DED048B 		vpush.64	{d8, d9}
 619              		.cfi_def_cfa_offset 48
 620              		.cfi_offset 80, -48
 621              		.cfi_offset 81, -44
 622              		.cfi_offset 82, -40
 623              		.cfi_offset 83, -36
 624 001c 82B0     		sub	sp, sp, #8
 625              		.cfi_def_cfa_offset 56
 626              	.LBB258:
ARM GAS  /tmp/cceKARlA.s 			page 25


 627              	.LBB239:
  53:../../DaisySP/Source/Synthesis/oscillator.h ****         freq_      = 100.0f;
 628              		.loc 2 53 27 view .LVU132
 629 001e B7EE009A 		vmov.f32	s18, #1.0e+0
 630              	.LBE239:
 631              	.LBE258:
  73:Ouroboros.cpp ****     hw.Init();
 632              		.loc 10 73 17 view .LVU133
 633 0022 FFF7FEFF 		bl	_ZN5daisy9DaisySeed9ConfigureEv
 634              	.LVL29:
  74:Ouroboros.cpp ****     hw.SetAudioBlockSize(4);
 635              		.loc 10 74 5 is_stmt 1 view .LVU134
  74:Ouroboros.cpp ****     hw.SetAudioBlockSize(4);
 636              		.loc 10 74 12 is_stmt 0 view .LVU135
 637 0026 0021     		movs	r1, #0
 638 0028 5848     		ldr	r0, .L28
 639              	.LBB259:
 640              	.LBB254:
 641              	.LBB250:
  44:../../DaisySP/Source/Utility/delayline.h ****         delay_     = 1;
 642              		.loc 9 44 20 view .LVU136
 643 002a A8F10C05 		sub	r5, r8, #12
 644              	.LBE250:
 645              	.LBE254:
 646              	.LBE259:
  74:Ouroboros.cpp ****     hw.SetAudioBlockSize(4);
 647              		.loc 10 74 12 view .LVU137
 648 002e FFF7FEFF 		bl	_ZN5daisy9DaisySeed4InitEb
 649              	.LVL30:
  75:Ouroboros.cpp ****     sample_rate = hw.AudioSampleRate();
 650              		.loc 10 75 5 is_stmt 1 view .LVU138
  75:Ouroboros.cpp ****     sample_rate = hw.AudioSampleRate();
 651              		.loc 10 75 25 is_stmt 0 view .LVU139
 652 0032 0421     		movs	r1, #4
 653 0034 5548     		ldr	r0, .L28
 654 0036 FFF7FEFF 		bl	_ZN5daisy9DaisySeed17SetAudioBlockSizeEj
 655              	.LVL31:
  76:Ouroboros.cpp ****     env.Init(sample_rate);
 656              		.loc 10 76 5 is_stmt 1 view .LVU140
  76:Ouroboros.cpp ****     env.Init(sample_rate);
 657              		.loc 10 76 37 is_stmt 0 view .LVU141
 658 003a 5448     		ldr	r0, .L28
 659 003c FFF7FEFF 		bl	_ZN5daisy9DaisySeed15AudioSampleRateEv
 660              	.LVL32:
 661 0040 F0EE408A 		vmov.f32	s17, s0
 662              	.LVL33:
 663              		.loc 10 77 5 is_stmt 1 view .LVU142
 664              		.loc 10 77 13 is_stmt 0 view .LVU143
 665 0044 3846     		mov	r0, r7
 666              	.LBB260:
 667              	.LBB240:
  57:../../DaisySP/Source/Synthesis/oscillator.h ****         phase_inc_ = CalcPhaseInc(freq_);
 668              		.loc 2 57 20 view .LVU144
 669 0046 9FED548A 		vldr.32	s16, .L28+12
 670              	.LBE240:
 671              	.LBE260:
 672              		.loc 10 77 13 view .LVU145
ARM GAS  /tmp/cceKARlA.s 			page 26


 673 004a FFF7FEFF 		bl	_ZN7daisysp5AdEnv4InitEf
 674              	.LVL34:
  78:Ouroboros.cpp ****     osc.Init(sample_rate);
 675              		.loc 10 78 5 is_stmt 1 view .LVU146
 676              	.LBB261:
 677              	.LBI236:
  50:../../DaisySP/Source/Synthesis/oscillator.h ****     {
 678              		.loc 2 50 10 view .LVU147
 679              	.LBB241:
  52:../../DaisySP/Source/Synthesis/oscillator.h ****         sr_recip_  = 1.0f / sample_rate;
 680              		.loc 2 52 9 view .LVU148
  54:../../DaisySP/Source/Synthesis/oscillator.h ****         amp_       = 0.5f;
 681              		.loc 2 54 20 is_stmt 0 view .LVU149
 682 004e 9FED530A 		vldr.32	s0, .L28+16
  53:../../DaisySP/Source/Synthesis/oscillator.h ****         freq_      = 100.0f;
 683              		.loc 2 53 27 view .LVU150
 684 0052 C9EE287A 		vdiv.f32	s15, s18, s17
  58:../../DaisySP/Source/Synthesis/oscillator.h ****         waveform_  = WAVE_SIN;
 685              		.loc 2 58 34 view .LVU151
 686 0056 3046     		mov	r0, r6
  55:../../DaisySP/Source/Synthesis/oscillator.h ****         pw_        = 0.5f;
 687              		.loc 2 55 20 view .LVU152
 688 0058 C6F80490 		str	r9, [r6, #4]	@ float
  56:../../DaisySP/Source/Synthesis/oscillator.h ****         phase_     = 0.0f;
 689              		.loc 2 56 20 view .LVU153
 690 005c C6F80C90 		str	r9, [r6, #12]	@ float
  52:../../DaisySP/Source/Synthesis/oscillator.h ****         sr_recip_  = 1.0f / sample_rate;
 691              		.loc 2 52 20 view .LVU154
 692 0060 C6ED048A 		vstr.32	s17, [r6, #16]
  53:../../DaisySP/Source/Synthesis/oscillator.h ****         freq_      = 100.0f;
 693              		.loc 2 53 9 is_stmt 1 view .LVU155
  54:../../DaisySP/Source/Synthesis/oscillator.h ****         amp_       = 0.5f;
 694              		.loc 2 54 20 is_stmt 0 view .LVU156
 695 0064 86ED020A 		vstr.32	s0, [r6, #8]
  57:../../DaisySP/Source/Synthesis/oscillator.h ****         phase_inc_ = CalcPhaseInc(freq_);
 696              		.loc 2 57 20 view .LVU157
 697 0068 86ED068A 		vstr.32	s16, [r6, #24]
  53:../../DaisySP/Source/Synthesis/oscillator.h ****         freq_      = 100.0f;
 698              		.loc 2 53 20 view .LVU158
 699 006c C6ED057A 		vstr.32	s15, [r6, #20]
  54:../../DaisySP/Source/Synthesis/oscillator.h ****         amp_       = 0.5f;
 700              		.loc 2 54 9 is_stmt 1 view .LVU159
  55:../../DaisySP/Source/Synthesis/oscillator.h ****         pw_        = 0.5f;
 701              		.loc 2 55 9 view .LVU160
  56:../../DaisySP/Source/Synthesis/oscillator.h ****         phase_     = 0.0f;
 702              		.loc 2 56 9 view .LVU161
  57:../../DaisySP/Source/Synthesis/oscillator.h ****         phase_inc_ = CalcPhaseInc(freq_);
 703              		.loc 2 57 9 view .LVU162
  58:../../DaisySP/Source/Synthesis/oscillator.h ****         waveform_  = WAVE_SIN;
 704              		.loc 2 58 9 view .LVU163
  58:../../DaisySP/Source/Synthesis/oscillator.h ****         waveform_  = WAVE_SIN;
 705              		.loc 2 58 34 is_stmt 0 view .LVU164
 706 0070 FFF7FEFF 		bl	_ZN7daisysp10Oscillator12CalcPhaseIncEf
 707              	.LVL35:
  61:../../DaisySP/Source/Synthesis/oscillator.h ****     }
 708              		.loc 2 61 20 view .LVU165
 709 0074 40F20113 		movw	r3, #257
ARM GAS  /tmp/cceKARlA.s 			page 27


 710              	.LBE241:
 711              	.LBE261:
 712              	.LBB262:
 713              	.LBB255:
 714              	.LBB251:
 715              	.LBB248:
  42:../../DaisySP/Source/Utility/delayline.h ****         }
 716              		.loc 9 42 22 view .LVU166
 717 0078 494A     		ldr	r2, .L28+20
 718 007a 5146     		mov	r1, r10
 719 007c 4046     		mov	r0, r8
 720              	.LBE248:
 721              	.LBE251:
 722              	.LBE255:
 723              	.LBE262:
 724              	.LBB263:
 725              	.LBB242:
  58:../../DaisySP/Source/Synthesis/oscillator.h ****         waveform_  = WAVE_SIN;
 726              		.loc 2 58 20 view .LVU167
 727 007e 86ED070A 		vstr.32	s0, [r6, #28]
  59:../../DaisySP/Source/Synthesis/oscillator.h ****         eoc_       = true;
 728              		.loc 2 59 9 is_stmt 1 view .LVU168
  61:../../DaisySP/Source/Synthesis/oscillator.h ****     }
 729              		.loc 2 61 20 is_stmt 0 view .LVU169
 730 0082 3385     		strh	r3, [r6, #40]	@ movhi
  59:../../DaisySP/Source/Synthesis/oscillator.h ****         eoc_       = true;
 731              		.loc 2 59 20 view .LVU170
 732 0084 86F800A0 		strb	r10, [r6]
  60:../../DaisySP/Source/Synthesis/oscillator.h ****         eor_       = true;
 733              		.loc 2 60 9 is_stmt 1 view .LVU171
  61:../../DaisySP/Source/Synthesis/oscillator.h ****     }
 734              		.loc 2 61 9 view .LVU172
 735              	.LVL36:
  61:../../DaisySP/Source/Synthesis/oscillator.h ****     }
 736              		.loc 2 61 9 is_stmt 0 view .LVU173
 737              	.LBE242:
 738              	.LBE263:
 739              	.LBB264:
 740              	.LBB256:
 741              	.LBB252:
 742              	.LBB249:
  40:../../DaisySP/Source/Utility/delayline.h ****         {
 743              		.loc 9 40 29 is_stmt 1 view .LVU174
  42:../../DaisySP/Source/Utility/delayline.h ****         }
 744              		.loc 9 42 22 is_stmt 0 view .LVU175
 745 0088 FFF7FEFF 		bl	memset
 746              	.LVL37:
  42:../../DaisySP/Source/Utility/delayline.h ****         }
 747              		.loc 9 42 22 view .LVU176
 748              	.LBE249:
 749              	.LBE252:
 750              	.LBE256:
 751              	.LBE264:
  79:Ouroboros.cpp ****     del.Init();
  80:Ouroboros.cpp **** 
  81:Ouroboros.cpp ****     adcConfig[0].InitSingle(hw.GetPin(21));
 752              		.loc 10 81 28 view .LVU177
ARM GAS  /tmp/cceKARlA.s 			page 28


 753 008c 1520     		movs	r0, #21
 754              	.LBB265:
 755              	.LBB257:
 756              	.LBB253:
  45:../../DaisySP/Source/Utility/delayline.h ****     }
 757              		.loc 9 45 20 view .LVU178
 758 008e C5E901A4 		strd	r10, r4, [r5, #4]
 759              	.LBE253:
 760              	.LBE257:
 761              	.LBE265:
 762              		.loc 10 81 5 is_stmt 1 view .LVU179
 763              		.loc 10 81 28 is_stmt 0 view .LVU180
 764 0092 FFF7FEFF 		bl	_ZN5daisy9DaisySeed6GetPinEh
 765              	.LVL38:
 766 0096 ADF80400 		strh	r0, [sp, #4]	@ movhi
 767 009a 0222     		movs	r2, #2
 768 009c 0199     		ldr	r1, [sp, #4]
 769 009e 4148     		ldr	r0, .L28+24
 770 00a0 FFF7FEFF 		bl	_ZN5daisy16AdcChannelConfig10InitSingleE12dsy_gpio_pinNS0_15ConversionSpeedE
 771              	.LVL39:
  82:Ouroboros.cpp **** 
  83:Ouroboros.cpp ****     //Initialize the adc with the config we just made
  84:Ouroboros.cpp ****     hw.adc.Init(adcConfig, 1);
 772              		.loc 10 84 5 is_stmt 1 view .LVU181
 773              		.loc 10 84 16 is_stmt 0 view .LVU182
 774 00a4 3F49     		ldr	r1, .L28+24
 775 00a6 2246     		mov	r2, r4
 776 00a8 0423     		movs	r3, #4
 777 00aa 3F48     		ldr	r0, .L28+28
 778 00ac FFF7FEFF 		bl	_ZN5daisy9AdcHandle4InitEPNS_16AdcChannelConfigEjNS0_12OverSamplingE
 779              	.LVL40:
  85:Ouroboros.cpp **** 
  86:Ouroboros.cpp ****     // Set up Metro to pulse every second
  87:Ouroboros.cpp ****     tick.Init(1.0f, sample_rate);
 780              		.loc 10 87 5 is_stmt 1 view .LVU183
 781              		.loc 10 87 14 is_stmt 0 view .LVU184
 782 00b0 F0EE680A 		vmov.f32	s1, s17
 783 00b4 B0EE490A 		vmov.f32	s0, s18
 784 00b8 3C48     		ldr	r0, .L28+32
 785 00ba FFF7FEFF 		bl	_ZN7daisysp5Metro4InitEff
 786              	.LVL41:
  88:Ouroboros.cpp **** 
  89:Ouroboros.cpp ****     // set adenv parameters
  90:Ouroboros.cpp ****     env.SetTime(ADENV_SEG_ATTACK, 0.001);
 787              		.loc 10 90 5 is_stmt 1 view .LVU185
 788              	.LBB266:
 789              	.LBI266:
  65:../../DaisySP/Source/Control/adenv.h ****     /** Sets the length of time (in seconds) for a specific segment. */
  66:../../DaisySP/Source/Control/adenv.h ****     inline void SetTime(uint8_t seg, float time) { segment_time_[seg] = time; }
 790              		.loc 1 66 17 view .LVU186
 791              	.LBB267:
 792              		.loc 1 66 52 view .LVU187
 793              		.loc 1 66 71 is_stmt 0 view .LVU188
 794 00be 3C4B     		ldr	r3, .L28+36
 795              	.LBE267:
 796              	.LBE266:
 797              	.LBB269:
ARM GAS  /tmp/cceKARlA.s 			page 29


 798              	.LBB270:
  69:../../DaisySP/Source/Synthesis/oscillator.h ****         phase_inc_ = CalcPhaseInc(f);
 799              		.loc 2 69 20 view .LVU189
 800 00c0 9FED3C0A 		vldr.32	s0, .L28+40
  70:../../DaisySP/Source/Synthesis/oscillator.h ****     }
 801              		.loc 2 70 34 view .LVU190
 802 00c4 3046     		mov	r0, r6
 803              	.LBE270:
 804              	.LBE269:
 805              	.LBB275:
 806              	.LBB276:
 807              		.loc 1 66 71 view .LVU191
 808 00c6 C7F80C90 		str	r9, [r7, #12]	@ float
 809              	.LBE276:
 810              	.LBE275:
 811              	.LBB278:
 812              	.LBB279:
  67:../../DaisySP/Source/Control/adenv.h ****     /** Sets the amount of curve applied. A positve value will create a log
  68:../../DaisySP/Source/Control/adenv.h ****         curve. Input range: -100 to 100.  (or more)
  69:../../DaisySP/Source/Control/adenv.h ****     */
  70:../../DaisySP/Source/Control/adenv.h ****     inline void SetCurve(float scalar) { curve_scalar_ = scalar; }
  71:../../DaisySP/Source/Control/adenv.h ****     /** Sets the minimum value of the envelope output.
  72:../../DaisySP/Source/Control/adenv.h ****         Input range: -FLTmax_, to FLTmax_
  73:../../DaisySP/Source/Control/adenv.h ****     */
  74:../../DaisySP/Source/Control/adenv.h ****     inline void SetMin(float min) { min_ = min; }
  75:../../DaisySP/Source/Control/adenv.h ****     /** Sets the maximum value of the envelope output.
  76:../../DaisySP/Source/Control/adenv.h ****         Input range: -FLTmax_, to FLTmax_
  77:../../DaisySP/Source/Control/adenv.h ****     */
  78:../../DaisySP/Source/Control/adenv.h ****     inline void SetMax(float max) { max_ = max; }
 813              		.loc 1 78 42 view .LVU192
 814 00ca 4FF07A59 		mov	r9, #1048576000
 815              	.LBE279:
 816              	.LBE278:
 817              	.LBB282:
 818              	.LBB268:
  66:../../DaisySP/Source/Control/adenv.h ****     /** Sets the amount of curve applied. A positve value will create a log
 819              		.loc 1 66 71 view .LVU193
 820 00ce BB60     		str	r3, [r7, #8]	@ float
 821              	.LVL42:
  66:../../DaisySP/Source/Control/adenv.h ****     /** Sets the amount of curve applied. A positve value will create a log
 822              		.loc 1 66 71 view .LVU194
 823              	.LBE268:
 824              	.LBE282:
  91:Ouroboros.cpp ****     env.SetTime(ADENV_SEG_DECAY, 0.50);
 825              		.loc 10 91 5 is_stmt 1 view .LVU195
 826              	.LBB283:
 827              	.LBI275:
  66:../../DaisySP/Source/Control/adenv.h ****     /** Sets the amount of curve applied. A positve value will create a log
 828              		.loc 1 66 17 view .LVU196
 829              	.LBB277:
  66:../../DaisySP/Source/Control/adenv.h ****     /** Sets the amount of curve applied. A positve value will create a log
 830              		.loc 1 66 52 view .LVU197
  66:../../DaisySP/Source/Control/adenv.h ****     /** Sets the amount of curve applied. A positve value will create a log
 831              		.loc 1 66 52 is_stmt 0 view .LVU198
 832              	.LBE277:
 833              	.LBE283:
  92:Ouroboros.cpp ****     env.SetMin(0.0);
ARM GAS  /tmp/cceKARlA.s 			page 30


 834              		.loc 10 92 5 is_stmt 1 view .LVU199
 835              	.LBB284:
 836              	.LBI284:
  74:../../DaisySP/Source/Control/adenv.h ****     /** Sets the maximum value of the envelope output.
 837              		.loc 1 74 17 view .LVU200
 838              	.LBB285:
  74:../../DaisySP/Source/Control/adenv.h ****     /** Sets the maximum value of the envelope output.
 839              		.loc 1 74 37 view .LVU201
  74:../../DaisySP/Source/Control/adenv.h ****     /** Sets the maximum value of the envelope output.
 840              		.loc 1 74 37 is_stmt 0 view .LVU202
 841              	.LBE285:
 842              	.LBE284:
  93:Ouroboros.cpp ****     env.SetMax(0.25);
 843              		.loc 10 93 5 is_stmt 1 view .LVU203
 844              	.LBB287:
 845              	.LBI278:
 846              		.loc 1 78 17 view .LVU204
 847              	.LBB280:
 848              		.loc 1 78 37 view .LVU205
 849              		.loc 1 78 37 is_stmt 0 view .LVU206
 850              	.LBE280:
 851              	.LBE287:
  94:Ouroboros.cpp ****     env.SetCurve(0); // linear
 852              		.loc 10 94 5 is_stmt 1 view .LVU207
 853              	.LBB288:
 854              	.LBI288:
  70:../../DaisySP/Source/Control/adenv.h ****     /** Sets the minimum value of the envelope output.
 855              		.loc 1 70 17 view .LVU208
 856              	.LBB289:
  70:../../DaisySP/Source/Control/adenv.h ****     /** Sets the minimum value of the envelope output.
 857              		.loc 1 70 42 view .LVU209
  70:../../DaisySP/Source/Control/adenv.h ****     /** Sets the minimum value of the envelope output.
 858              		.loc 1 70 42 is_stmt 0 view .LVU210
 859              	.LBE289:
 860              	.LBE288:
  95:Ouroboros.cpp **** 
  96:Ouroboros.cpp ****     // Set parameters for oscillator
  97:Ouroboros.cpp ****     osc.SetWaveform(osc.WAVE_TRI);
 861              		.loc 10 97 5 is_stmt 1 view .LVU211
 862              	.LBB291:
 863              	.LBI291:
  77:../../DaisySP/Source/Synthesis/oscillator.h ****     /** Sets the waveform to be synthesized by the Process() function.
  78:../../DaisySP/Source/Synthesis/oscillator.h ****     */
  79:../../DaisySP/Source/Synthesis/oscillator.h ****     inline void SetWaveform(const uint8_t wf)
 864              		.loc 2 79 17 view .LVU212
 865              	.LBB292:
  80:../../DaisySP/Source/Synthesis/oscillator.h ****     {
  81:../../DaisySP/Source/Synthesis/oscillator.h ****         waveform_ = wf < WAVE_LAST ? wf : WAVE_SIN;
 866              		.loc 2 81 9 view .LVU213
 867              		.loc 2 81 9 is_stmt 0 view .LVU214
 868              	.LBE292:
 869              	.LBE291:
  98:Ouroboros.cpp ****     osc.SetFreq(220);
 870              		.loc 10 98 5 is_stmt 1 view .LVU215
 871              	.LBB294:
 872              	.LBI269:
  67:../../DaisySP/Source/Synthesis/oscillator.h ****     {
ARM GAS  /tmp/cceKARlA.s 			page 31


 873              		.loc 2 67 17 view .LVU216
 874              	.LBB271:
  69:../../DaisySP/Source/Synthesis/oscillator.h ****         phase_inc_ = CalcPhaseInc(f);
 875              		.loc 2 69 9 view .LVU217
  70:../../DaisySP/Source/Synthesis/oscillator.h ****     }
 876              		.loc 2 70 9 view .LVU218
 877              	.LBE271:
 878              	.LBE294:
 879              	.LBB295:
 880              	.LBB286:
  74:../../DaisySP/Source/Control/adenv.h ****     /** Sets the maximum value of the envelope output.
 881              		.loc 1 74 42 is_stmt 0 view .LVU219
 882 00d0 87ED058A 		vstr.32	s16, [r7, #20]
 883              	.LBE286:
 884              	.LBE295:
 885              	.LBB296:
 886              	.LBB290:
  70:../../DaisySP/Source/Control/adenv.h ****     /** Sets the minimum value of the envelope output.
 887              		.loc 1 70 56 view .LVU220
 888 00d4 87ED088A 		vstr.32	s16, [r7, #32]
 889              	.LBE290:
 890              	.LBE296:
 891              	.LBB297:
 892              	.LBB293:
 893              		.loc 2 81 19 view .LVU221
 894 00d8 3470     		strb	r4, [r6]
 895              	.LBE293:
 896              	.LBE297:
 897              	.LBB298:
 898              	.LBB272:
  69:../../DaisySP/Source/Synthesis/oscillator.h ****         phase_inc_ = CalcPhaseInc(f);
 899              		.loc 2 69 20 view .LVU222
 900 00da 86ED020A 		vstr.32	s0, [r6, #8]
 901              	.LBE272:
 902              	.LBE298:
 903              	.LBB299:
 904              	.LBB281:
 905              		.loc 1 78 42 view .LVU223
 906 00de C7F81890 		str	r9, [r7, #24]	@ float
 907              	.LBE281:
 908              	.LBE299:
 909              	.LBB300:
 910              	.LBB273:
  70:../../DaisySP/Source/Synthesis/oscillator.h ****     }
 911              		.loc 2 70 34 view .LVU224
 912 00e2 FFF7FEFF 		bl	_ZN7daisysp10Oscillator12CalcPhaseIncEf
 913              	.LVL43:
 914              	.LBE273:
 915              	.LBE300:
  99:Ouroboros.cpp ****     osc.SetAmp(0.25);
 100:Ouroboros.cpp **** 
 101:Ouroboros.cpp ****     // Set Delay time to 0.75 seconds
 102:Ouroboros.cpp ****     del.SetDelay(sample_rate * 0.2f);
 916              		.loc 10 102 17 view .LVU225
 917 00e6 DFED347A 		vldr.32	s15, .L28+44
 918              	.LBB301:
 919              	.LBB302:
ARM GAS  /tmp/cceKARlA.s 			page 32


  64:../../DaisySP/Source/Utility/delayline.h ****                                                            : max_size - 1;
 920              		.loc 9 64 60 view .LVU226
 921 00ea 48F69F43 		movw	r3, #35999
 922              	.LBE302:
 923              	.LBE301:
 103:Ouroboros.cpp **** 
 104:Ouroboros.cpp **** 
 105:Ouroboros.cpp ****     // start callback
 106:Ouroboros.cpp ****     hw.adc.Start();
 924              		.loc 10 106 17 view .LVU227
 925 00ee 2E48     		ldr	r0, .L28+28
 102:Ouroboros.cpp **** 
 926              		.loc 10 102 17 view .LVU228
 927 00f0 68EEA77A 		vmul.f32	s15, s17, s15
 928              	.LBB304:
 929              	.LBB305:
  76:../../DaisySP/Source/Synthesis/oscillator.h ****     /** Sets the waveform to be synthesized by the Process() function.
 930              		.loc 2 76 46 view .LVU229
 931 00f4 C6F80490 		str	r9, [r6, #4]	@ float
 932              	.LBE305:
 933              	.LBE304:
 934              	.LBB307:
 935              	.LBB274:
  70:../../DaisySP/Source/Synthesis/oscillator.h ****     }
 936              		.loc 2 70 20 view .LVU230
 937 00f8 86ED070A 		vstr.32	s0, [r6, #28]
 938              	.LVL44:
  70:../../DaisySP/Source/Synthesis/oscillator.h ****     }
 939              		.loc 2 70 20 view .LVU231
 940              	.LBE274:
 941              	.LBE307:
  99:Ouroboros.cpp **** 
 942              		.loc 10 99 5 is_stmt 1 view .LVU232
 943              	.LBB308:
 944              	.LBI304:
  76:../../DaisySP/Source/Synthesis/oscillator.h ****     /** Sets the waveform to be synthesized by the Process() function.
 945              		.loc 2 76 17 view .LVU233
 946              	.LBB306:
  76:../../DaisySP/Source/Synthesis/oscillator.h ****     /** Sets the waveform to be synthesized by the Process() function.
 947              		.loc 2 76 41 view .LVU234
  76:../../DaisySP/Source/Synthesis/oscillator.h ****     /** Sets the waveform to be synthesized by the Process() function.
 948              		.loc 2 76 41 is_stmt 0 view .LVU235
 949              	.LBE306:
 950              	.LBE308:
 102:Ouroboros.cpp **** 
 951              		.loc 10 102 5 is_stmt 1 view .LVU236
 952              	.LBB309:
 953              	.LBI301:
  60:../../DaisySP/Source/Utility/delayline.h ****     {
 954              		.loc 9 60 17 view .LVU237
 955              	.LBB303:
  62:../../DaisySP/Source/Utility/delayline.h ****         frac_             = delay - static_cast<float>(int_delay);
 956              		.loc 9 62 17 is_stmt 0 view .LVU238
 957 00fc BDEEE77A 		vcvt.s32.f32	s14, s15
 958              	.LVL45:
  64:../../DaisySP/Source/Utility/delayline.h ****                                                            : max_size - 1;
 959              		.loc 9 64 60 view .LVU239
ARM GAS  /tmp/cceKARlA.s 			page 33


 960 0100 17EE102A 		vmov	r2, s14	@ int
  63:../../DaisySP/Source/Utility/delayline.h ****         delay_ = static_cast<size_t>(int_delay) < max_size ? int_delay
 961              		.loc 9 63 37 view .LVU240
 962 0104 F8EEC76A 		vcvt.f32.s32	s13, s14
  64:../../DaisySP/Source/Utility/delayline.h ****                                                            : max_size - 1;
 963              		.loc 9 64 60 view .LVU241
 964 0108 9A42     		cmp	r2, r3
  63:../../DaisySP/Source/Utility/delayline.h ****         delay_ = static_cast<size_t>(int_delay) < max_size ? int_delay
 965              		.loc 9 63 35 view .LVU242
 966 010a 77EEE67A 		vsub.f32	s15, s15, s13
 967              	.LVL46:
  64:../../DaisySP/Source/Utility/delayline.h ****                                                            : max_size - 1;
 968              		.loc 9 64 60 view .LVU243
 969 010e 28BF     		it	cs
 970 0110 1A46     		movcs	r2, r3
  63:../../DaisySP/Source/Utility/delayline.h ****         delay_ = static_cast<size_t>(int_delay) < max_size ? int_delay
 971              		.loc 9 63 27 view .LVU244
 972 0112 48ED037A 		vstr.32	s15, [r8, #-12]
  64:../../DaisySP/Source/Utility/delayline.h ****                                                            : max_size - 1;
 973              		.loc 9 64 16 view .LVU245
 974 0116 AA60     		str	r2, [r5, #8]
 975              	.LVL47:
  64:../../DaisySP/Source/Utility/delayline.h ****                                                            : max_size - 1;
 976              		.loc 9 64 16 view .LVU246
 977              	.LBE303:
 978              	.LBE309:
 979              		.loc 10 106 5 is_stmt 1 view .LVU247
 980              		.loc 10 106 17 is_stmt 0 view .LVU248
 981 0118 FFF7FEFF 		bl	_ZN5daisy9AdcHandle5StartEv
 982              	.LVL48:
 107:Ouroboros.cpp ****     hw.StartAudio(AudioCallback);
 983              		.loc 10 107 5 is_stmt 1 view .LVU249
 984              		.loc 10 107 18 is_stmt 0 view .LVU250
 985 011c 2749     		ldr	r1, .L28+48
 986 011e 1B48     		ldr	r0, .L28
 987 0120 FFF7FEFF 		bl	_ZN5daisy9DaisySeed10StartAudioEPFvPKfPfjE
 988              	.LVL49:
 989              	.L26:
 108:Ouroboros.cpp **** 
 109:Ouroboros.cpp ****     uint32_t potVal;
 990              		.loc 10 109 5 is_stmt 1 discriminator 1 view .LVU251
 110:Ouroboros.cpp **** 
 111:Ouroboros.cpp ****     // Loop forever
 112:Ouroboros.cpp ****     for(;;)
 991              		.loc 10 112 5 discriminator 1 view .LVU252
 113:Ouroboros.cpp ****     {
 114:Ouroboros.cpp ****         // Set the onboard LED
 115:Ouroboros.cpp ****         hw.SetLed(led_state);
 992              		.loc 10 115 9 discriminator 1 view .LVU253
 993              		.loc 10 115 18 is_stmt 0 discriminator 1 view .LVU254
 994 0124 2146     		mov	r1, r4
 995 0126 1948     		ldr	r0, .L28
 116:Ouroboros.cpp **** 
 117:Ouroboros.cpp ****         // Toggle the LED state for the next time around.
 118:Ouroboros.cpp ****         led_state = !led_state;
 119:Ouroboros.cpp **** 
 120:Ouroboros.cpp ****         potVal = (int)floor(hw.adc.GetFloat(0)*100.00f);
ARM GAS  /tmp/cceKARlA.s 			page 34


 996              		.loc 10 120 28 discriminator 1 view .LVU255
 997 0128 9FED1C8A 		vldr.32	s16, .L28+16
 115:Ouroboros.cpp **** 
 998              		.loc 10 115 18 discriminator 1 view .LVU256
 999 012c FFF7FEFF 		bl	_ZN5daisy9DaisySeed6SetLedEb
 1000              	.LVL50:
 118:Ouroboros.cpp **** 
 1001              		.loc 10 118 9 is_stmt 1 discriminator 1 view .LVU257
 1002              		.loc 10 120 44 is_stmt 0 discriminator 1 view .LVU258
 1003 0130 0021     		movs	r1, #0
 1004 0132 1D48     		ldr	r0, .L28+28
 1005 0134 FFF7FEFF 		bl	_ZNK5daisy9AdcHandle8GetFloatEh
 1006              	.LVL51:
 1007              		.loc 10 120 28 discriminator 1 view .LVU259
 1008 0138 20EE080A 		vmul.f32	s0, s0, s16
 121:Ouroboros.cpp **** 
 122:Ouroboros.cpp ****         del.SetDelay(sample_rate * (hw.adc.GetFloat(0)+0.02f));
 1009              		.loc 10 122 52 discriminator 1 view .LVU260
 1010 013c 0021     		movs	r1, #0
 1011 013e 1A48     		ldr	r0, .L28+28
 118:Ouroboros.cpp **** 
 1012              		.loc 10 118 19 discriminator 1 view .LVU261
 1013 0140 84F00104 		eor	r4, r4, #1
 1014              	.LVL52:
 120:Ouroboros.cpp **** 
 1015              		.loc 10 120 9 is_stmt 1 discriminator 1 view .LVU262
 1016              	.LBB310:
 1017              	.LBI310:
 1018              		.file 11 "/home/ethan/Developer/gcc-arm-none-eabi-10-2020-q4-major/arm-none-eabi/include/c++/10.2.
   1:/home/ethan/Developer/gcc-arm-none-eabi-10-2020-q4-major/arm-none-eabi/include/c++/10.2.1/cmath **** // -*- C++ -*- C forwarding header.
   2:/home/ethan/Developer/gcc-arm-none-eabi-10-2020-q4-major/arm-none-eabi/include/c++/10.2.1/cmath **** 
   3:/home/ethan/Developer/gcc-arm-none-eabi-10-2020-q4-major/arm-none-eabi/include/c++/10.2.1/cmath **** // Copyright (C) 1997-2020 Free Software Foundation, Inc.
   4:/home/ethan/Developer/gcc-arm-none-eabi-10-2020-q4-major/arm-none-eabi/include/c++/10.2.1/cmath **** //
   5:/home/ethan/Developer/gcc-arm-none-eabi-10-2020-q4-major/arm-none-eabi/include/c++/10.2.1/cmath **** // This file is part of the GNU ISO C++ Library.  This library is free
   6:/home/ethan/Developer/gcc-arm-none-eabi-10-2020-q4-major/arm-none-eabi/include/c++/10.2.1/cmath **** // software; you can redistribute it and/or modify it under the
   7:/home/ethan/Developer/gcc-arm-none-eabi-10-2020-q4-major/arm-none-eabi/include/c++/10.2.1/cmath **** // terms of the GNU General Public License as published by the
   8:/home/ethan/Developer/gcc-arm-none-eabi-10-2020-q4-major/arm-none-eabi/include/c++/10.2.1/cmath **** // Free Software Foundation; either version 3, or (at your option)
   9:/home/ethan/Developer/gcc-arm-none-eabi-10-2020-q4-major/arm-none-eabi/include/c++/10.2.1/cmath **** // any later version.
  10:/home/ethan/Developer/gcc-arm-none-eabi-10-2020-q4-major/arm-none-eabi/include/c++/10.2.1/cmath **** 
  11:/home/ethan/Developer/gcc-arm-none-eabi-10-2020-q4-major/arm-none-eabi/include/c++/10.2.1/cmath **** // This library is distributed in the hope that it will be useful,
  12:/home/ethan/Developer/gcc-arm-none-eabi-10-2020-q4-major/arm-none-eabi/include/c++/10.2.1/cmath **** // but WITHOUT ANY WARRANTY; without even the implied warranty of
  13:/home/ethan/Developer/gcc-arm-none-eabi-10-2020-q4-major/arm-none-eabi/include/c++/10.2.1/cmath **** // MERCHANTABILITY or FITNESS FOR A PARTICULAR PURPOSE.  See the
  14:/home/ethan/Developer/gcc-arm-none-eabi-10-2020-q4-major/arm-none-eabi/include/c++/10.2.1/cmath **** // GNU General Public License for more details.
  15:/home/ethan/Developer/gcc-arm-none-eabi-10-2020-q4-major/arm-none-eabi/include/c++/10.2.1/cmath **** 
  16:/home/ethan/Developer/gcc-arm-none-eabi-10-2020-q4-major/arm-none-eabi/include/c++/10.2.1/cmath **** // Under Section 7 of GPL version 3, you are granted additional
  17:/home/ethan/Developer/gcc-arm-none-eabi-10-2020-q4-major/arm-none-eabi/include/c++/10.2.1/cmath **** // permissions described in the GCC Runtime Library Exception, version
  18:/home/ethan/Developer/gcc-arm-none-eabi-10-2020-q4-major/arm-none-eabi/include/c++/10.2.1/cmath **** // 3.1, as published by the Free Software Foundation.
  19:/home/ethan/Developer/gcc-arm-none-eabi-10-2020-q4-major/arm-none-eabi/include/c++/10.2.1/cmath **** 
  20:/home/ethan/Developer/gcc-arm-none-eabi-10-2020-q4-major/arm-none-eabi/include/c++/10.2.1/cmath **** // You should have received a copy of the GNU General Public License and
  21:/home/ethan/Developer/gcc-arm-none-eabi-10-2020-q4-major/arm-none-eabi/include/c++/10.2.1/cmath **** // a copy of the GCC Runtime Library Exception along with this program;
  22:/home/ethan/Developer/gcc-arm-none-eabi-10-2020-q4-major/arm-none-eabi/include/c++/10.2.1/cmath **** // see the files COPYING3 and COPYING.RUNTIME respectively.  If not, see
  23:/home/ethan/Developer/gcc-arm-none-eabi-10-2020-q4-major/arm-none-eabi/include/c++/10.2.1/cmath **** // <http://www.gnu.org/licenses/>.
  24:/home/ethan/Developer/gcc-arm-none-eabi-10-2020-q4-major/arm-none-eabi/include/c++/10.2.1/cmath **** 
  25:/home/ethan/Developer/gcc-arm-none-eabi-10-2020-q4-major/arm-none-eabi/include/c++/10.2.1/cmath **** /** @file include/cmath
  26:/home/ethan/Developer/gcc-arm-none-eabi-10-2020-q4-major/arm-none-eabi/include/c++/10.2.1/cmath ****  *  This is a Standard C++ Library file.  You should @c \#include this file
  27:/home/ethan/Developer/gcc-arm-none-eabi-10-2020-q4-major/arm-none-eabi/include/c++/10.2.1/cmath ****  *  in your programs, rather than any of the @a *.h implementation files.
  28:/home/ethan/Developer/gcc-arm-none-eabi-10-2020-q4-major/arm-none-eabi/include/c++/10.2.1/cmath ****  *
ARM GAS  /tmp/cceKARlA.s 			page 35


  29:/home/ethan/Developer/gcc-arm-none-eabi-10-2020-q4-major/arm-none-eabi/include/c++/10.2.1/cmath ****  *  This is the C++ version of the Standard C Library header @c math.h,
  30:/home/ethan/Developer/gcc-arm-none-eabi-10-2020-q4-major/arm-none-eabi/include/c++/10.2.1/cmath ****  *  and its contents are (mostly) the same as that header, but are all
  31:/home/ethan/Developer/gcc-arm-none-eabi-10-2020-q4-major/arm-none-eabi/include/c++/10.2.1/cmath ****  *  contained in the namespace @c std (except for names which are defined
  32:/home/ethan/Developer/gcc-arm-none-eabi-10-2020-q4-major/arm-none-eabi/include/c++/10.2.1/cmath ****  *  as macros in C).
  33:/home/ethan/Developer/gcc-arm-none-eabi-10-2020-q4-major/arm-none-eabi/include/c++/10.2.1/cmath ****  */
  34:/home/ethan/Developer/gcc-arm-none-eabi-10-2020-q4-major/arm-none-eabi/include/c++/10.2.1/cmath **** 
  35:/home/ethan/Developer/gcc-arm-none-eabi-10-2020-q4-major/arm-none-eabi/include/c++/10.2.1/cmath **** //
  36:/home/ethan/Developer/gcc-arm-none-eabi-10-2020-q4-major/arm-none-eabi/include/c++/10.2.1/cmath **** // ISO C++ 14882: 26.5  C library
  37:/home/ethan/Developer/gcc-arm-none-eabi-10-2020-q4-major/arm-none-eabi/include/c++/10.2.1/cmath **** //
  38:/home/ethan/Developer/gcc-arm-none-eabi-10-2020-q4-major/arm-none-eabi/include/c++/10.2.1/cmath **** 
  39:/home/ethan/Developer/gcc-arm-none-eabi-10-2020-q4-major/arm-none-eabi/include/c++/10.2.1/cmath **** #pragma GCC system_header
  40:/home/ethan/Developer/gcc-arm-none-eabi-10-2020-q4-major/arm-none-eabi/include/c++/10.2.1/cmath **** 
  41:/home/ethan/Developer/gcc-arm-none-eabi-10-2020-q4-major/arm-none-eabi/include/c++/10.2.1/cmath **** #include <bits/c++config.h>
  42:/home/ethan/Developer/gcc-arm-none-eabi-10-2020-q4-major/arm-none-eabi/include/c++/10.2.1/cmath **** #include <bits/cpp_type_traits.h>
  43:/home/ethan/Developer/gcc-arm-none-eabi-10-2020-q4-major/arm-none-eabi/include/c++/10.2.1/cmath **** #include <ext/type_traits.h>
  44:/home/ethan/Developer/gcc-arm-none-eabi-10-2020-q4-major/arm-none-eabi/include/c++/10.2.1/cmath **** #define _GLIBCXX_INCLUDE_NEXT_C_HEADERS
  45:/home/ethan/Developer/gcc-arm-none-eabi-10-2020-q4-major/arm-none-eabi/include/c++/10.2.1/cmath **** #include_next <math.h>
  46:/home/ethan/Developer/gcc-arm-none-eabi-10-2020-q4-major/arm-none-eabi/include/c++/10.2.1/cmath **** #undef _GLIBCXX_INCLUDE_NEXT_C_HEADERS
  47:/home/ethan/Developer/gcc-arm-none-eabi-10-2020-q4-major/arm-none-eabi/include/c++/10.2.1/cmath **** #include <bits/std_abs.h>
  48:/home/ethan/Developer/gcc-arm-none-eabi-10-2020-q4-major/arm-none-eabi/include/c++/10.2.1/cmath **** 
  49:/home/ethan/Developer/gcc-arm-none-eabi-10-2020-q4-major/arm-none-eabi/include/c++/10.2.1/cmath **** #ifndef _GLIBCXX_CMATH
  50:/home/ethan/Developer/gcc-arm-none-eabi-10-2020-q4-major/arm-none-eabi/include/c++/10.2.1/cmath **** #define _GLIBCXX_CMATH 1
  51:/home/ethan/Developer/gcc-arm-none-eabi-10-2020-q4-major/arm-none-eabi/include/c++/10.2.1/cmath **** 
  52:/home/ethan/Developer/gcc-arm-none-eabi-10-2020-q4-major/arm-none-eabi/include/c++/10.2.1/cmath **** // Get rid of those macros defined in <math.h> in lieu of real functions.
  53:/home/ethan/Developer/gcc-arm-none-eabi-10-2020-q4-major/arm-none-eabi/include/c++/10.2.1/cmath **** #undef div
  54:/home/ethan/Developer/gcc-arm-none-eabi-10-2020-q4-major/arm-none-eabi/include/c++/10.2.1/cmath **** #undef acos
  55:/home/ethan/Developer/gcc-arm-none-eabi-10-2020-q4-major/arm-none-eabi/include/c++/10.2.1/cmath **** #undef asin
  56:/home/ethan/Developer/gcc-arm-none-eabi-10-2020-q4-major/arm-none-eabi/include/c++/10.2.1/cmath **** #undef atan
  57:/home/ethan/Developer/gcc-arm-none-eabi-10-2020-q4-major/arm-none-eabi/include/c++/10.2.1/cmath **** #undef atan2
  58:/home/ethan/Developer/gcc-arm-none-eabi-10-2020-q4-major/arm-none-eabi/include/c++/10.2.1/cmath **** #undef ceil
  59:/home/ethan/Developer/gcc-arm-none-eabi-10-2020-q4-major/arm-none-eabi/include/c++/10.2.1/cmath **** #undef cos
  60:/home/ethan/Developer/gcc-arm-none-eabi-10-2020-q4-major/arm-none-eabi/include/c++/10.2.1/cmath **** #undef cosh
  61:/home/ethan/Developer/gcc-arm-none-eabi-10-2020-q4-major/arm-none-eabi/include/c++/10.2.1/cmath **** #undef exp
  62:/home/ethan/Developer/gcc-arm-none-eabi-10-2020-q4-major/arm-none-eabi/include/c++/10.2.1/cmath **** #undef fabs
  63:/home/ethan/Developer/gcc-arm-none-eabi-10-2020-q4-major/arm-none-eabi/include/c++/10.2.1/cmath **** #undef floor
  64:/home/ethan/Developer/gcc-arm-none-eabi-10-2020-q4-major/arm-none-eabi/include/c++/10.2.1/cmath **** #undef fmod
  65:/home/ethan/Developer/gcc-arm-none-eabi-10-2020-q4-major/arm-none-eabi/include/c++/10.2.1/cmath **** #undef frexp
  66:/home/ethan/Developer/gcc-arm-none-eabi-10-2020-q4-major/arm-none-eabi/include/c++/10.2.1/cmath **** #undef ldexp
  67:/home/ethan/Developer/gcc-arm-none-eabi-10-2020-q4-major/arm-none-eabi/include/c++/10.2.1/cmath **** #undef log
  68:/home/ethan/Developer/gcc-arm-none-eabi-10-2020-q4-major/arm-none-eabi/include/c++/10.2.1/cmath **** #undef log10
  69:/home/ethan/Developer/gcc-arm-none-eabi-10-2020-q4-major/arm-none-eabi/include/c++/10.2.1/cmath **** #undef modf
  70:/home/ethan/Developer/gcc-arm-none-eabi-10-2020-q4-major/arm-none-eabi/include/c++/10.2.1/cmath **** #undef pow
  71:/home/ethan/Developer/gcc-arm-none-eabi-10-2020-q4-major/arm-none-eabi/include/c++/10.2.1/cmath **** #undef sin
  72:/home/ethan/Developer/gcc-arm-none-eabi-10-2020-q4-major/arm-none-eabi/include/c++/10.2.1/cmath **** #undef sinh
  73:/home/ethan/Developer/gcc-arm-none-eabi-10-2020-q4-major/arm-none-eabi/include/c++/10.2.1/cmath **** #undef sqrt
  74:/home/ethan/Developer/gcc-arm-none-eabi-10-2020-q4-major/arm-none-eabi/include/c++/10.2.1/cmath **** #undef tan
  75:/home/ethan/Developer/gcc-arm-none-eabi-10-2020-q4-major/arm-none-eabi/include/c++/10.2.1/cmath **** #undef tanh
  76:/home/ethan/Developer/gcc-arm-none-eabi-10-2020-q4-major/arm-none-eabi/include/c++/10.2.1/cmath **** 
  77:/home/ethan/Developer/gcc-arm-none-eabi-10-2020-q4-major/arm-none-eabi/include/c++/10.2.1/cmath **** extern "C++"
  78:/home/ethan/Developer/gcc-arm-none-eabi-10-2020-q4-major/arm-none-eabi/include/c++/10.2.1/cmath **** {
  79:/home/ethan/Developer/gcc-arm-none-eabi-10-2020-q4-major/arm-none-eabi/include/c++/10.2.1/cmath **** namespace std _GLIBCXX_VISIBILITY(default)
  80:/home/ethan/Developer/gcc-arm-none-eabi-10-2020-q4-major/arm-none-eabi/include/c++/10.2.1/cmath **** {
  81:/home/ethan/Developer/gcc-arm-none-eabi-10-2020-q4-major/arm-none-eabi/include/c++/10.2.1/cmath **** _GLIBCXX_BEGIN_NAMESPACE_VERSION
  82:/home/ethan/Developer/gcc-arm-none-eabi-10-2020-q4-major/arm-none-eabi/include/c++/10.2.1/cmath **** 
  83:/home/ethan/Developer/gcc-arm-none-eabi-10-2020-q4-major/arm-none-eabi/include/c++/10.2.1/cmath ****   using ::acos;
  84:/home/ethan/Developer/gcc-arm-none-eabi-10-2020-q4-major/arm-none-eabi/include/c++/10.2.1/cmath **** 
  85:/home/ethan/Developer/gcc-arm-none-eabi-10-2020-q4-major/arm-none-eabi/include/c++/10.2.1/cmath **** #ifndef __CORRECT_ISO_CPP_MATH_H_PROTO
ARM GAS  /tmp/cceKARlA.s 			page 36


  86:/home/ethan/Developer/gcc-arm-none-eabi-10-2020-q4-major/arm-none-eabi/include/c++/10.2.1/cmath ****   inline _GLIBCXX_CONSTEXPR float
  87:/home/ethan/Developer/gcc-arm-none-eabi-10-2020-q4-major/arm-none-eabi/include/c++/10.2.1/cmath ****   acos(float __x)
  88:/home/ethan/Developer/gcc-arm-none-eabi-10-2020-q4-major/arm-none-eabi/include/c++/10.2.1/cmath ****   { return __builtin_acosf(__x); }
  89:/home/ethan/Developer/gcc-arm-none-eabi-10-2020-q4-major/arm-none-eabi/include/c++/10.2.1/cmath **** 
  90:/home/ethan/Developer/gcc-arm-none-eabi-10-2020-q4-major/arm-none-eabi/include/c++/10.2.1/cmath ****   inline _GLIBCXX_CONSTEXPR long double
  91:/home/ethan/Developer/gcc-arm-none-eabi-10-2020-q4-major/arm-none-eabi/include/c++/10.2.1/cmath ****   acos(long double __x)
  92:/home/ethan/Developer/gcc-arm-none-eabi-10-2020-q4-major/arm-none-eabi/include/c++/10.2.1/cmath ****   { return __builtin_acosl(__x); }
  93:/home/ethan/Developer/gcc-arm-none-eabi-10-2020-q4-major/arm-none-eabi/include/c++/10.2.1/cmath **** #endif
  94:/home/ethan/Developer/gcc-arm-none-eabi-10-2020-q4-major/arm-none-eabi/include/c++/10.2.1/cmath **** 
  95:/home/ethan/Developer/gcc-arm-none-eabi-10-2020-q4-major/arm-none-eabi/include/c++/10.2.1/cmath ****   template<typename _Tp>
  96:/home/ethan/Developer/gcc-arm-none-eabi-10-2020-q4-major/arm-none-eabi/include/c++/10.2.1/cmath ****     inline _GLIBCXX_CONSTEXPR
  97:/home/ethan/Developer/gcc-arm-none-eabi-10-2020-q4-major/arm-none-eabi/include/c++/10.2.1/cmath ****     typename __gnu_cxx::__enable_if<__is_integer<_Tp>::__value, 
  98:/home/ethan/Developer/gcc-arm-none-eabi-10-2020-q4-major/arm-none-eabi/include/c++/10.2.1/cmath ****                                     double>::__type
  99:/home/ethan/Developer/gcc-arm-none-eabi-10-2020-q4-major/arm-none-eabi/include/c++/10.2.1/cmath ****     acos(_Tp __x)
 100:/home/ethan/Developer/gcc-arm-none-eabi-10-2020-q4-major/arm-none-eabi/include/c++/10.2.1/cmath ****     { return __builtin_acos(__x); }
 101:/home/ethan/Developer/gcc-arm-none-eabi-10-2020-q4-major/arm-none-eabi/include/c++/10.2.1/cmath **** 
 102:/home/ethan/Developer/gcc-arm-none-eabi-10-2020-q4-major/arm-none-eabi/include/c++/10.2.1/cmath ****   using ::asin;
 103:/home/ethan/Developer/gcc-arm-none-eabi-10-2020-q4-major/arm-none-eabi/include/c++/10.2.1/cmath **** 
 104:/home/ethan/Developer/gcc-arm-none-eabi-10-2020-q4-major/arm-none-eabi/include/c++/10.2.1/cmath **** #ifndef __CORRECT_ISO_CPP_MATH_H_PROTO
 105:/home/ethan/Developer/gcc-arm-none-eabi-10-2020-q4-major/arm-none-eabi/include/c++/10.2.1/cmath ****   inline _GLIBCXX_CONSTEXPR float
 106:/home/ethan/Developer/gcc-arm-none-eabi-10-2020-q4-major/arm-none-eabi/include/c++/10.2.1/cmath ****   asin(float __x)
 107:/home/ethan/Developer/gcc-arm-none-eabi-10-2020-q4-major/arm-none-eabi/include/c++/10.2.1/cmath ****   { return __builtin_asinf(__x); }
 108:/home/ethan/Developer/gcc-arm-none-eabi-10-2020-q4-major/arm-none-eabi/include/c++/10.2.1/cmath **** 
 109:/home/ethan/Developer/gcc-arm-none-eabi-10-2020-q4-major/arm-none-eabi/include/c++/10.2.1/cmath ****   inline _GLIBCXX_CONSTEXPR long double
 110:/home/ethan/Developer/gcc-arm-none-eabi-10-2020-q4-major/arm-none-eabi/include/c++/10.2.1/cmath ****   asin(long double __x)
 111:/home/ethan/Developer/gcc-arm-none-eabi-10-2020-q4-major/arm-none-eabi/include/c++/10.2.1/cmath ****   { return __builtin_asinl(__x); }
 112:/home/ethan/Developer/gcc-arm-none-eabi-10-2020-q4-major/arm-none-eabi/include/c++/10.2.1/cmath **** #endif
 113:/home/ethan/Developer/gcc-arm-none-eabi-10-2020-q4-major/arm-none-eabi/include/c++/10.2.1/cmath **** 
 114:/home/ethan/Developer/gcc-arm-none-eabi-10-2020-q4-major/arm-none-eabi/include/c++/10.2.1/cmath ****   template<typename _Tp>
 115:/home/ethan/Developer/gcc-arm-none-eabi-10-2020-q4-major/arm-none-eabi/include/c++/10.2.1/cmath ****     inline _GLIBCXX_CONSTEXPR
 116:/home/ethan/Developer/gcc-arm-none-eabi-10-2020-q4-major/arm-none-eabi/include/c++/10.2.1/cmath ****     typename __gnu_cxx::__enable_if<__is_integer<_Tp>::__value,
 117:/home/ethan/Developer/gcc-arm-none-eabi-10-2020-q4-major/arm-none-eabi/include/c++/10.2.1/cmath ****                                     double>::__type
 118:/home/ethan/Developer/gcc-arm-none-eabi-10-2020-q4-major/arm-none-eabi/include/c++/10.2.1/cmath ****     asin(_Tp __x)
 119:/home/ethan/Developer/gcc-arm-none-eabi-10-2020-q4-major/arm-none-eabi/include/c++/10.2.1/cmath ****     { return __builtin_asin(__x); }
 120:/home/ethan/Developer/gcc-arm-none-eabi-10-2020-q4-major/arm-none-eabi/include/c++/10.2.1/cmath **** 
 121:/home/ethan/Developer/gcc-arm-none-eabi-10-2020-q4-major/arm-none-eabi/include/c++/10.2.1/cmath ****   using ::atan;
 122:/home/ethan/Developer/gcc-arm-none-eabi-10-2020-q4-major/arm-none-eabi/include/c++/10.2.1/cmath **** 
 123:/home/ethan/Developer/gcc-arm-none-eabi-10-2020-q4-major/arm-none-eabi/include/c++/10.2.1/cmath **** #ifndef __CORRECT_ISO_CPP_MATH_H_PROTO
 124:/home/ethan/Developer/gcc-arm-none-eabi-10-2020-q4-major/arm-none-eabi/include/c++/10.2.1/cmath ****   inline _GLIBCXX_CONSTEXPR float
 125:/home/ethan/Developer/gcc-arm-none-eabi-10-2020-q4-major/arm-none-eabi/include/c++/10.2.1/cmath ****   atan(float __x)
 126:/home/ethan/Developer/gcc-arm-none-eabi-10-2020-q4-major/arm-none-eabi/include/c++/10.2.1/cmath ****   { return __builtin_atanf(__x); }
 127:/home/ethan/Developer/gcc-arm-none-eabi-10-2020-q4-major/arm-none-eabi/include/c++/10.2.1/cmath **** 
 128:/home/ethan/Developer/gcc-arm-none-eabi-10-2020-q4-major/arm-none-eabi/include/c++/10.2.1/cmath ****   inline _GLIBCXX_CONSTEXPR long double
 129:/home/ethan/Developer/gcc-arm-none-eabi-10-2020-q4-major/arm-none-eabi/include/c++/10.2.1/cmath ****   atan(long double __x)
 130:/home/ethan/Developer/gcc-arm-none-eabi-10-2020-q4-major/arm-none-eabi/include/c++/10.2.1/cmath ****   { return __builtin_atanl(__x); }
 131:/home/ethan/Developer/gcc-arm-none-eabi-10-2020-q4-major/arm-none-eabi/include/c++/10.2.1/cmath **** #endif
 132:/home/ethan/Developer/gcc-arm-none-eabi-10-2020-q4-major/arm-none-eabi/include/c++/10.2.1/cmath **** 
 133:/home/ethan/Developer/gcc-arm-none-eabi-10-2020-q4-major/arm-none-eabi/include/c++/10.2.1/cmath ****   template<typename _Tp>
 134:/home/ethan/Developer/gcc-arm-none-eabi-10-2020-q4-major/arm-none-eabi/include/c++/10.2.1/cmath ****     inline _GLIBCXX_CONSTEXPR
 135:/home/ethan/Developer/gcc-arm-none-eabi-10-2020-q4-major/arm-none-eabi/include/c++/10.2.1/cmath ****     typename __gnu_cxx::__enable_if<__is_integer<_Tp>::__value,
 136:/home/ethan/Developer/gcc-arm-none-eabi-10-2020-q4-major/arm-none-eabi/include/c++/10.2.1/cmath ****                                     double>::__type
 137:/home/ethan/Developer/gcc-arm-none-eabi-10-2020-q4-major/arm-none-eabi/include/c++/10.2.1/cmath ****     atan(_Tp __x)
 138:/home/ethan/Developer/gcc-arm-none-eabi-10-2020-q4-major/arm-none-eabi/include/c++/10.2.1/cmath ****     { return __builtin_atan(__x); }
 139:/home/ethan/Developer/gcc-arm-none-eabi-10-2020-q4-major/arm-none-eabi/include/c++/10.2.1/cmath **** 
 140:/home/ethan/Developer/gcc-arm-none-eabi-10-2020-q4-major/arm-none-eabi/include/c++/10.2.1/cmath ****   using ::atan2;
 141:/home/ethan/Developer/gcc-arm-none-eabi-10-2020-q4-major/arm-none-eabi/include/c++/10.2.1/cmath **** 
 142:/home/ethan/Developer/gcc-arm-none-eabi-10-2020-q4-major/arm-none-eabi/include/c++/10.2.1/cmath **** #ifndef __CORRECT_ISO_CPP_MATH_H_PROTO
ARM GAS  /tmp/cceKARlA.s 			page 37


 143:/home/ethan/Developer/gcc-arm-none-eabi-10-2020-q4-major/arm-none-eabi/include/c++/10.2.1/cmath ****   inline _GLIBCXX_CONSTEXPR float
 144:/home/ethan/Developer/gcc-arm-none-eabi-10-2020-q4-major/arm-none-eabi/include/c++/10.2.1/cmath ****   atan2(float __y, float __x)
 145:/home/ethan/Developer/gcc-arm-none-eabi-10-2020-q4-major/arm-none-eabi/include/c++/10.2.1/cmath ****   { return __builtin_atan2f(__y, __x); }
 146:/home/ethan/Developer/gcc-arm-none-eabi-10-2020-q4-major/arm-none-eabi/include/c++/10.2.1/cmath **** 
 147:/home/ethan/Developer/gcc-arm-none-eabi-10-2020-q4-major/arm-none-eabi/include/c++/10.2.1/cmath ****   inline _GLIBCXX_CONSTEXPR long double
 148:/home/ethan/Developer/gcc-arm-none-eabi-10-2020-q4-major/arm-none-eabi/include/c++/10.2.1/cmath ****   atan2(long double __y, long double __x)
 149:/home/ethan/Developer/gcc-arm-none-eabi-10-2020-q4-major/arm-none-eabi/include/c++/10.2.1/cmath ****   { return __builtin_atan2l(__y, __x); }
 150:/home/ethan/Developer/gcc-arm-none-eabi-10-2020-q4-major/arm-none-eabi/include/c++/10.2.1/cmath **** #endif
 151:/home/ethan/Developer/gcc-arm-none-eabi-10-2020-q4-major/arm-none-eabi/include/c++/10.2.1/cmath **** 
 152:/home/ethan/Developer/gcc-arm-none-eabi-10-2020-q4-major/arm-none-eabi/include/c++/10.2.1/cmath ****   template<typename _Tp, typename _Up>
 153:/home/ethan/Developer/gcc-arm-none-eabi-10-2020-q4-major/arm-none-eabi/include/c++/10.2.1/cmath ****     inline _GLIBCXX_CONSTEXPR
 154:/home/ethan/Developer/gcc-arm-none-eabi-10-2020-q4-major/arm-none-eabi/include/c++/10.2.1/cmath ****     typename __gnu_cxx::__promote_2<_Tp, _Up>::__type
 155:/home/ethan/Developer/gcc-arm-none-eabi-10-2020-q4-major/arm-none-eabi/include/c++/10.2.1/cmath ****     atan2(_Tp __y, _Up __x)
 156:/home/ethan/Developer/gcc-arm-none-eabi-10-2020-q4-major/arm-none-eabi/include/c++/10.2.1/cmath ****     {
 157:/home/ethan/Developer/gcc-arm-none-eabi-10-2020-q4-major/arm-none-eabi/include/c++/10.2.1/cmath ****       typedef typename __gnu_cxx::__promote_2<_Tp, _Up>::__type __type;
 158:/home/ethan/Developer/gcc-arm-none-eabi-10-2020-q4-major/arm-none-eabi/include/c++/10.2.1/cmath ****       return atan2(__type(__y), __type(__x));
 159:/home/ethan/Developer/gcc-arm-none-eabi-10-2020-q4-major/arm-none-eabi/include/c++/10.2.1/cmath ****     }
 160:/home/ethan/Developer/gcc-arm-none-eabi-10-2020-q4-major/arm-none-eabi/include/c++/10.2.1/cmath **** 
 161:/home/ethan/Developer/gcc-arm-none-eabi-10-2020-q4-major/arm-none-eabi/include/c++/10.2.1/cmath ****   using ::ceil;
 162:/home/ethan/Developer/gcc-arm-none-eabi-10-2020-q4-major/arm-none-eabi/include/c++/10.2.1/cmath **** 
 163:/home/ethan/Developer/gcc-arm-none-eabi-10-2020-q4-major/arm-none-eabi/include/c++/10.2.1/cmath **** #ifndef __CORRECT_ISO_CPP_MATH_H_PROTO
 164:/home/ethan/Developer/gcc-arm-none-eabi-10-2020-q4-major/arm-none-eabi/include/c++/10.2.1/cmath ****   inline _GLIBCXX_CONSTEXPR float
 165:/home/ethan/Developer/gcc-arm-none-eabi-10-2020-q4-major/arm-none-eabi/include/c++/10.2.1/cmath ****   ceil(float __x)
 166:/home/ethan/Developer/gcc-arm-none-eabi-10-2020-q4-major/arm-none-eabi/include/c++/10.2.1/cmath ****   { return __builtin_ceilf(__x); }
 167:/home/ethan/Developer/gcc-arm-none-eabi-10-2020-q4-major/arm-none-eabi/include/c++/10.2.1/cmath **** 
 168:/home/ethan/Developer/gcc-arm-none-eabi-10-2020-q4-major/arm-none-eabi/include/c++/10.2.1/cmath ****   inline _GLIBCXX_CONSTEXPR long double
 169:/home/ethan/Developer/gcc-arm-none-eabi-10-2020-q4-major/arm-none-eabi/include/c++/10.2.1/cmath ****   ceil(long double __x)
 170:/home/ethan/Developer/gcc-arm-none-eabi-10-2020-q4-major/arm-none-eabi/include/c++/10.2.1/cmath ****   { return __builtin_ceill(__x); }
 171:/home/ethan/Developer/gcc-arm-none-eabi-10-2020-q4-major/arm-none-eabi/include/c++/10.2.1/cmath **** #endif
 172:/home/ethan/Developer/gcc-arm-none-eabi-10-2020-q4-major/arm-none-eabi/include/c++/10.2.1/cmath **** 
 173:/home/ethan/Developer/gcc-arm-none-eabi-10-2020-q4-major/arm-none-eabi/include/c++/10.2.1/cmath ****   template<typename _Tp>
 174:/home/ethan/Developer/gcc-arm-none-eabi-10-2020-q4-major/arm-none-eabi/include/c++/10.2.1/cmath ****     inline _GLIBCXX_CONSTEXPR
 175:/home/ethan/Developer/gcc-arm-none-eabi-10-2020-q4-major/arm-none-eabi/include/c++/10.2.1/cmath ****     typename __gnu_cxx::__enable_if<__is_integer<_Tp>::__value, 
 176:/home/ethan/Developer/gcc-arm-none-eabi-10-2020-q4-major/arm-none-eabi/include/c++/10.2.1/cmath ****                                     double>::__type
 177:/home/ethan/Developer/gcc-arm-none-eabi-10-2020-q4-major/arm-none-eabi/include/c++/10.2.1/cmath ****     ceil(_Tp __x)
 178:/home/ethan/Developer/gcc-arm-none-eabi-10-2020-q4-major/arm-none-eabi/include/c++/10.2.1/cmath ****     { return __builtin_ceil(__x); }
 179:/home/ethan/Developer/gcc-arm-none-eabi-10-2020-q4-major/arm-none-eabi/include/c++/10.2.1/cmath **** 
 180:/home/ethan/Developer/gcc-arm-none-eabi-10-2020-q4-major/arm-none-eabi/include/c++/10.2.1/cmath ****   using ::cos;
 181:/home/ethan/Developer/gcc-arm-none-eabi-10-2020-q4-major/arm-none-eabi/include/c++/10.2.1/cmath **** 
 182:/home/ethan/Developer/gcc-arm-none-eabi-10-2020-q4-major/arm-none-eabi/include/c++/10.2.1/cmath **** #ifndef __CORRECT_ISO_CPP_MATH_H_PROTO
 183:/home/ethan/Developer/gcc-arm-none-eabi-10-2020-q4-major/arm-none-eabi/include/c++/10.2.1/cmath ****   inline _GLIBCXX_CONSTEXPR float
 184:/home/ethan/Developer/gcc-arm-none-eabi-10-2020-q4-major/arm-none-eabi/include/c++/10.2.1/cmath ****   cos(float __x)
 185:/home/ethan/Developer/gcc-arm-none-eabi-10-2020-q4-major/arm-none-eabi/include/c++/10.2.1/cmath ****   { return __builtin_cosf(__x); }
 186:/home/ethan/Developer/gcc-arm-none-eabi-10-2020-q4-major/arm-none-eabi/include/c++/10.2.1/cmath **** 
 187:/home/ethan/Developer/gcc-arm-none-eabi-10-2020-q4-major/arm-none-eabi/include/c++/10.2.1/cmath ****   inline _GLIBCXX_CONSTEXPR long double
 188:/home/ethan/Developer/gcc-arm-none-eabi-10-2020-q4-major/arm-none-eabi/include/c++/10.2.1/cmath ****   cos(long double __x)
 189:/home/ethan/Developer/gcc-arm-none-eabi-10-2020-q4-major/arm-none-eabi/include/c++/10.2.1/cmath ****   { return __builtin_cosl(__x); }
 190:/home/ethan/Developer/gcc-arm-none-eabi-10-2020-q4-major/arm-none-eabi/include/c++/10.2.1/cmath **** #endif
 191:/home/ethan/Developer/gcc-arm-none-eabi-10-2020-q4-major/arm-none-eabi/include/c++/10.2.1/cmath **** 
 192:/home/ethan/Developer/gcc-arm-none-eabi-10-2020-q4-major/arm-none-eabi/include/c++/10.2.1/cmath ****   template<typename _Tp>
 193:/home/ethan/Developer/gcc-arm-none-eabi-10-2020-q4-major/arm-none-eabi/include/c++/10.2.1/cmath ****     inline _GLIBCXX_CONSTEXPR
 194:/home/ethan/Developer/gcc-arm-none-eabi-10-2020-q4-major/arm-none-eabi/include/c++/10.2.1/cmath ****     typename __gnu_cxx::__enable_if<__is_integer<_Tp>::__value,
 195:/home/ethan/Developer/gcc-arm-none-eabi-10-2020-q4-major/arm-none-eabi/include/c++/10.2.1/cmath ****                                     double>::__type
 196:/home/ethan/Developer/gcc-arm-none-eabi-10-2020-q4-major/arm-none-eabi/include/c++/10.2.1/cmath ****     cos(_Tp __x)
 197:/home/ethan/Developer/gcc-arm-none-eabi-10-2020-q4-major/arm-none-eabi/include/c++/10.2.1/cmath ****     { return __builtin_cos(__x); }
 198:/home/ethan/Developer/gcc-arm-none-eabi-10-2020-q4-major/arm-none-eabi/include/c++/10.2.1/cmath **** 
 199:/home/ethan/Developer/gcc-arm-none-eabi-10-2020-q4-major/arm-none-eabi/include/c++/10.2.1/cmath ****   using ::cosh;
ARM GAS  /tmp/cceKARlA.s 			page 38


 200:/home/ethan/Developer/gcc-arm-none-eabi-10-2020-q4-major/arm-none-eabi/include/c++/10.2.1/cmath **** 
 201:/home/ethan/Developer/gcc-arm-none-eabi-10-2020-q4-major/arm-none-eabi/include/c++/10.2.1/cmath **** #ifndef __CORRECT_ISO_CPP_MATH_H_PROTO
 202:/home/ethan/Developer/gcc-arm-none-eabi-10-2020-q4-major/arm-none-eabi/include/c++/10.2.1/cmath ****   inline _GLIBCXX_CONSTEXPR float
 203:/home/ethan/Developer/gcc-arm-none-eabi-10-2020-q4-major/arm-none-eabi/include/c++/10.2.1/cmath ****   cosh(float __x)
 204:/home/ethan/Developer/gcc-arm-none-eabi-10-2020-q4-major/arm-none-eabi/include/c++/10.2.1/cmath ****   { return __builtin_coshf(__x); }
 205:/home/ethan/Developer/gcc-arm-none-eabi-10-2020-q4-major/arm-none-eabi/include/c++/10.2.1/cmath **** 
 206:/home/ethan/Developer/gcc-arm-none-eabi-10-2020-q4-major/arm-none-eabi/include/c++/10.2.1/cmath ****   inline _GLIBCXX_CONSTEXPR long double
 207:/home/ethan/Developer/gcc-arm-none-eabi-10-2020-q4-major/arm-none-eabi/include/c++/10.2.1/cmath ****   cosh(long double __x)
 208:/home/ethan/Developer/gcc-arm-none-eabi-10-2020-q4-major/arm-none-eabi/include/c++/10.2.1/cmath ****   { return __builtin_coshl(__x); }
 209:/home/ethan/Developer/gcc-arm-none-eabi-10-2020-q4-major/arm-none-eabi/include/c++/10.2.1/cmath **** #endif
 210:/home/ethan/Developer/gcc-arm-none-eabi-10-2020-q4-major/arm-none-eabi/include/c++/10.2.1/cmath **** 
 211:/home/ethan/Developer/gcc-arm-none-eabi-10-2020-q4-major/arm-none-eabi/include/c++/10.2.1/cmath ****   template<typename _Tp>
 212:/home/ethan/Developer/gcc-arm-none-eabi-10-2020-q4-major/arm-none-eabi/include/c++/10.2.1/cmath ****     inline _GLIBCXX_CONSTEXPR
 213:/home/ethan/Developer/gcc-arm-none-eabi-10-2020-q4-major/arm-none-eabi/include/c++/10.2.1/cmath ****     typename __gnu_cxx::__enable_if<__is_integer<_Tp>::__value,
 214:/home/ethan/Developer/gcc-arm-none-eabi-10-2020-q4-major/arm-none-eabi/include/c++/10.2.1/cmath ****                                     double>::__type
 215:/home/ethan/Developer/gcc-arm-none-eabi-10-2020-q4-major/arm-none-eabi/include/c++/10.2.1/cmath ****     cosh(_Tp __x)
 216:/home/ethan/Developer/gcc-arm-none-eabi-10-2020-q4-major/arm-none-eabi/include/c++/10.2.1/cmath ****     { return __builtin_cosh(__x); }
 217:/home/ethan/Developer/gcc-arm-none-eabi-10-2020-q4-major/arm-none-eabi/include/c++/10.2.1/cmath **** 
 218:/home/ethan/Developer/gcc-arm-none-eabi-10-2020-q4-major/arm-none-eabi/include/c++/10.2.1/cmath ****   using ::exp;
 219:/home/ethan/Developer/gcc-arm-none-eabi-10-2020-q4-major/arm-none-eabi/include/c++/10.2.1/cmath **** 
 220:/home/ethan/Developer/gcc-arm-none-eabi-10-2020-q4-major/arm-none-eabi/include/c++/10.2.1/cmath **** #ifndef __CORRECT_ISO_CPP_MATH_H_PROTO
 221:/home/ethan/Developer/gcc-arm-none-eabi-10-2020-q4-major/arm-none-eabi/include/c++/10.2.1/cmath ****   inline _GLIBCXX_CONSTEXPR float
 222:/home/ethan/Developer/gcc-arm-none-eabi-10-2020-q4-major/arm-none-eabi/include/c++/10.2.1/cmath ****   exp(float __x)
 223:/home/ethan/Developer/gcc-arm-none-eabi-10-2020-q4-major/arm-none-eabi/include/c++/10.2.1/cmath ****   { return __builtin_expf(__x); }
 224:/home/ethan/Developer/gcc-arm-none-eabi-10-2020-q4-major/arm-none-eabi/include/c++/10.2.1/cmath **** 
 225:/home/ethan/Developer/gcc-arm-none-eabi-10-2020-q4-major/arm-none-eabi/include/c++/10.2.1/cmath ****   inline _GLIBCXX_CONSTEXPR long double
 226:/home/ethan/Developer/gcc-arm-none-eabi-10-2020-q4-major/arm-none-eabi/include/c++/10.2.1/cmath ****   exp(long double __x)
 227:/home/ethan/Developer/gcc-arm-none-eabi-10-2020-q4-major/arm-none-eabi/include/c++/10.2.1/cmath ****   { return __builtin_expl(__x); }
 228:/home/ethan/Developer/gcc-arm-none-eabi-10-2020-q4-major/arm-none-eabi/include/c++/10.2.1/cmath **** #endif
 229:/home/ethan/Developer/gcc-arm-none-eabi-10-2020-q4-major/arm-none-eabi/include/c++/10.2.1/cmath **** 
 230:/home/ethan/Developer/gcc-arm-none-eabi-10-2020-q4-major/arm-none-eabi/include/c++/10.2.1/cmath ****   template<typename _Tp>
 231:/home/ethan/Developer/gcc-arm-none-eabi-10-2020-q4-major/arm-none-eabi/include/c++/10.2.1/cmath ****     inline _GLIBCXX_CONSTEXPR
 232:/home/ethan/Developer/gcc-arm-none-eabi-10-2020-q4-major/arm-none-eabi/include/c++/10.2.1/cmath ****     typename __gnu_cxx::__enable_if<__is_integer<_Tp>::__value,
 233:/home/ethan/Developer/gcc-arm-none-eabi-10-2020-q4-major/arm-none-eabi/include/c++/10.2.1/cmath ****                                     double>::__type
 234:/home/ethan/Developer/gcc-arm-none-eabi-10-2020-q4-major/arm-none-eabi/include/c++/10.2.1/cmath ****     exp(_Tp __x)
 235:/home/ethan/Developer/gcc-arm-none-eabi-10-2020-q4-major/arm-none-eabi/include/c++/10.2.1/cmath ****     { return __builtin_exp(__x); }
 236:/home/ethan/Developer/gcc-arm-none-eabi-10-2020-q4-major/arm-none-eabi/include/c++/10.2.1/cmath **** 
 237:/home/ethan/Developer/gcc-arm-none-eabi-10-2020-q4-major/arm-none-eabi/include/c++/10.2.1/cmath ****   using ::fabs;
 238:/home/ethan/Developer/gcc-arm-none-eabi-10-2020-q4-major/arm-none-eabi/include/c++/10.2.1/cmath **** 
 239:/home/ethan/Developer/gcc-arm-none-eabi-10-2020-q4-major/arm-none-eabi/include/c++/10.2.1/cmath **** #ifndef __CORRECT_ISO_CPP_MATH_H_PROTO
 240:/home/ethan/Developer/gcc-arm-none-eabi-10-2020-q4-major/arm-none-eabi/include/c++/10.2.1/cmath ****   inline _GLIBCXX_CONSTEXPR float
 241:/home/ethan/Developer/gcc-arm-none-eabi-10-2020-q4-major/arm-none-eabi/include/c++/10.2.1/cmath ****   fabs(float __x)
 242:/home/ethan/Developer/gcc-arm-none-eabi-10-2020-q4-major/arm-none-eabi/include/c++/10.2.1/cmath ****   { return __builtin_fabsf(__x); }
 243:/home/ethan/Developer/gcc-arm-none-eabi-10-2020-q4-major/arm-none-eabi/include/c++/10.2.1/cmath **** 
 244:/home/ethan/Developer/gcc-arm-none-eabi-10-2020-q4-major/arm-none-eabi/include/c++/10.2.1/cmath ****   inline _GLIBCXX_CONSTEXPR long double
 245:/home/ethan/Developer/gcc-arm-none-eabi-10-2020-q4-major/arm-none-eabi/include/c++/10.2.1/cmath ****   fabs(long double __x)
 246:/home/ethan/Developer/gcc-arm-none-eabi-10-2020-q4-major/arm-none-eabi/include/c++/10.2.1/cmath ****   { return __builtin_fabsl(__x); }
 247:/home/ethan/Developer/gcc-arm-none-eabi-10-2020-q4-major/arm-none-eabi/include/c++/10.2.1/cmath **** #endif
 248:/home/ethan/Developer/gcc-arm-none-eabi-10-2020-q4-major/arm-none-eabi/include/c++/10.2.1/cmath **** 
 249:/home/ethan/Developer/gcc-arm-none-eabi-10-2020-q4-major/arm-none-eabi/include/c++/10.2.1/cmath ****   template<typename _Tp>
 250:/home/ethan/Developer/gcc-arm-none-eabi-10-2020-q4-major/arm-none-eabi/include/c++/10.2.1/cmath ****     inline _GLIBCXX_CONSTEXPR
 251:/home/ethan/Developer/gcc-arm-none-eabi-10-2020-q4-major/arm-none-eabi/include/c++/10.2.1/cmath ****     typename __gnu_cxx::__enable_if<__is_integer<_Tp>::__value,
 252:/home/ethan/Developer/gcc-arm-none-eabi-10-2020-q4-major/arm-none-eabi/include/c++/10.2.1/cmath ****                                     double>::__type
 253:/home/ethan/Developer/gcc-arm-none-eabi-10-2020-q4-major/arm-none-eabi/include/c++/10.2.1/cmath ****     fabs(_Tp __x)
 254:/home/ethan/Developer/gcc-arm-none-eabi-10-2020-q4-major/arm-none-eabi/include/c++/10.2.1/cmath ****     { return __builtin_fabs(__x); }
 255:/home/ethan/Developer/gcc-arm-none-eabi-10-2020-q4-major/arm-none-eabi/include/c++/10.2.1/cmath **** 
 256:/home/ethan/Developer/gcc-arm-none-eabi-10-2020-q4-major/arm-none-eabi/include/c++/10.2.1/cmath ****   using ::floor;
ARM GAS  /tmp/cceKARlA.s 			page 39


 257:/home/ethan/Developer/gcc-arm-none-eabi-10-2020-q4-major/arm-none-eabi/include/c++/10.2.1/cmath **** 
 258:/home/ethan/Developer/gcc-arm-none-eabi-10-2020-q4-major/arm-none-eabi/include/c++/10.2.1/cmath **** #ifndef __CORRECT_ISO_CPP_MATH_H_PROTO
 259:/home/ethan/Developer/gcc-arm-none-eabi-10-2020-q4-major/arm-none-eabi/include/c++/10.2.1/cmath ****   inline _GLIBCXX_CONSTEXPR float
 260:/home/ethan/Developer/gcc-arm-none-eabi-10-2020-q4-major/arm-none-eabi/include/c++/10.2.1/cmath ****   floor(float __x)
 1019              		.loc 11 260 3 discriminator 1 view .LVU263
 1020              	.LBB311:
 261:/home/ethan/Developer/gcc-arm-none-eabi-10-2020-q4-major/arm-none-eabi/include/c++/10.2.1/cmath ****   { return __builtin_floorf(__x); }
 1021              		.loc 11 261 5 discriminator 1 view .LVU264
 1022              		.loc 11 261 28 is_stmt 0 discriminator 1 view .LVU265
 1023 0144 BBFE408A 		vrintm.f32	s16, s0
 1024              	.LVL53:
 1025              		.loc 11 261 28 discriminator 1 view .LVU266
 1026              	.LBE311:
 1027              	.LBE310:
 1028              		.loc 10 122 9 is_stmt 1 discriminator 1 view .LVU267
 1029              		.loc 10 122 52 is_stmt 0 discriminator 1 view .LVU268
 1030 0148 FFF7FEFF 		bl	_ZNK5daisy9AdcHandle8GetFloatEh
 1031              	.LVL54:
 1032              		.loc 10 122 55 discriminator 1 view .LVU269
 1033 014c DFED1C7A 		vldr.32	s15, .L28+52
 123:Ouroboros.cpp **** 
 124:Ouroboros.cpp ****         // Wait 500ms
 125:Ouroboros.cpp ****         // System::Delay((uint32_t)floor(hw.adc.GetFloat(0)*500.0f));
 126:Ouroboros.cpp ****         System::Delay(potVal);
 1034              		.loc 10 126 22 discriminator 1 view .LVU270
 1035 0150 BDEEC87A 		vcvt.s32.f32	s14, s16
 1036              	.LBB312:
 1037              	.LBB313:
  64:../../DaisySP/Source/Utility/delayline.h ****                                                            : max_size - 1;
 1038              		.loc 9 64 60 discriminator 1 view .LVU271
 1039 0154 48F69F43 		movw	r3, #35999
 1040              	.LBE313:
 1041              	.LBE312:
 122:Ouroboros.cpp **** 
 1042              		.loc 10 122 55 discriminator 1 view .LVU272
 1043 0158 30EE270A 		vadd.f32	s0, s0, s15
 1044              		.loc 10 126 22 discriminator 1 view .LVU273
 1045 015c 17EE100A 		vmov	r0, s14	@ int
 122:Ouroboros.cpp **** 
 1046              		.loc 10 122 21 discriminator 1 view .LVU274
 1047 0160 60EE287A 		vmul.f32	s15, s0, s17
 1048              	.LVL55:
 1049              	.LBB315:
 1050              	.LBI312:
  60:../../DaisySP/Source/Utility/delayline.h ****     {
 1051              		.loc 9 60 17 is_stmt 1 discriminator 1 view .LVU275
 1052              	.LBB314:
  62:../../DaisySP/Source/Utility/delayline.h ****         frac_             = delay - static_cast<float>(int_delay);
 1053              		.loc 9 62 17 is_stmt 0 discriminator 1 view .LVU276
 1054 0164 BDEEE77A 		vcvt.s32.f32	s14, s15
 1055              	.LVL56:
  64:../../DaisySP/Source/Utility/delayline.h ****                                                            : max_size - 1;
 1056              		.loc 9 64 60 discriminator 1 view .LVU277
 1057 0168 17EE102A 		vmov	r2, s14	@ int
  63:../../DaisySP/Source/Utility/delayline.h ****         delay_ = static_cast<size_t>(int_delay) < max_size ? int_delay
 1058              		.loc 9 63 37 discriminator 1 view .LVU278
 1059 016c F8EEC76A 		vcvt.f32.s32	s13, s14
ARM GAS  /tmp/cceKARlA.s 			page 40


  64:../../DaisySP/Source/Utility/delayline.h ****                                                            : max_size - 1;
 1060              		.loc 9 64 60 discriminator 1 view .LVU279
 1061 0170 9A42     		cmp	r2, r3
  63:../../DaisySP/Source/Utility/delayline.h ****         delay_ = static_cast<size_t>(int_delay) < max_size ? int_delay
 1062              		.loc 9 63 35 discriminator 1 view .LVU280
 1063 0172 77EEE67A 		vsub.f32	s15, s15, s13
 1064              	.LVL57:
  64:../../DaisySP/Source/Utility/delayline.h ****                                                            : max_size - 1;
 1065              		.loc 9 64 60 discriminator 1 view .LVU281
 1066 0176 28BF     		it	cs
 1067 0178 1A46     		movcs	r2, r3
  63:../../DaisySP/Source/Utility/delayline.h ****         delay_ = static_cast<size_t>(int_delay) < max_size ? int_delay
 1068              		.loc 9 63 27 discriminator 1 view .LVU282
 1069 017a C5ED007A 		vstr.32	s15, [r5]
  64:../../DaisySP/Source/Utility/delayline.h ****                                                            : max_size - 1;
 1070              		.loc 9 64 16 discriminator 1 view .LVU283
 1071 017e AA60     		str	r2, [r5, #8]
 1072              	.LVL58:
  64:../../DaisySP/Source/Utility/delayline.h ****                                                            : max_size - 1;
 1073              		.loc 9 64 16 discriminator 1 view .LVU284
 1074              	.LBE314:
 1075              	.LBE315:
 1076              		.loc 10 126 9 is_stmt 1 discriminator 1 view .LVU285
 1077              		.loc 10 126 22 is_stmt 0 discriminator 1 view .LVU286
 1078 0180 FFF7FEFF 		bl	_ZN5daisy6System5DelayEm
 1079              	.LVL59:
 127:Ouroboros.cpp ****         System::Delay(50);
 1080              		.loc 10 127 9 is_stmt 1 discriminator 1 view .LVU287
 1081              		.loc 10 127 22 is_stmt 0 discriminator 1 view .LVU288
 1082 0184 3220     		movs	r0, #50
 1083 0186 FFF7FEFF 		bl	_ZN5daisy6System5DelayEm
 1084              	.LVL60:
 112:Ouroboros.cpp ****     {
 1085              		.loc 10 112 5 is_stmt 1 discriminator 1 view .LVU289
 1086 018a CBE7     		b	.L26
 1087              	.L29:
 1088              		.align	2
 1089              	.L28:
 1090 018c 00000000 		.word	.LANCHOR3
 1091 0190 00000000 		.word	.LANCHOR2
 1092 0194 00000000 		.word	.LANCHOR1
 1093 0198 00000000 		.word	0
 1094 019c 0000C842 		.word	1120403456
 1095 01a0 80320200 		.word	144000
 1096 01a4 00000000 		.word	.LANCHOR4
 1097 01a8 18000000 		.word	.LANCHOR3+24
 1098 01ac 00000000 		.word	.LANCHOR0
 1099 01b0 6F12833A 		.word	981668463
 1100 01b4 00005C43 		.word	1130102784
 1101 01b8 CDCC4C3E 		.word	1045220557
 1102 01bc 00000000 		.word	_ZL13AudioCallbackPKfPfj
 1103 01c0 0AD7A33C 		.word	1017370378
 1104 01c4 0C000000 		.word	_ZL3del+12
 1105              		.cfi_endproc
 1106              	.LFE4690:
 1108              		.section	.text.startup._GLOBAL__sub_I_hw,"ax",%progbits
 1109              		.align	1
ARM GAS  /tmp/cceKARlA.s 			page 41


 1110              		.p2align 2,,3
 1111              		.syntax unified
 1112              		.thumb
 1113              		.thumb_func
 1114              		.fpu fpv5-d16
 1116              	_GLOBAL__sub_I_hw:
 1117              	.LFB5264:
 128:Ouroboros.cpp ****     }
 129:Ouroboros.cpp **** }
 1118              		.loc 10 129 1 view -0
 1119              		.cfi_startproc
 1120              		@ args = 0, pretend = 0, frame = 0
 1121              		@ frame_needed = 0, uses_anonymous_args = 0
 1122              	.LBB345:
 1123              	.LBI345:
 1124              		.loc 10 129 1 view .LVU291
 1125              	.LVL61:
 1126              	.LBB346:
 1127              	.LBB347:
 1128              	.LBI347:
  21:../../libDaisy/src/daisy_seed.h ****     ~DaisySeed() {}
 1129              		.loc 4 21 5 view .LVU292
 1130              	.LBB348:
 1131              	.LBB349:
 1132              	.LBI349:
 1133              		.file 12 "../../libDaisy/src/per/qspi.h"
   1:../../libDaisy/src/per/qspi.h **** #ifndef DSY_QSPI
   2:../../libDaisy/src/per/qspi.h **** #define DSY_QSPI /**< Macro */
   3:../../libDaisy/src/per/qspi.h **** 
   4:../../libDaisy/src/per/qspi.h **** #ifndef UNIT_TEST // for unit tests, a dummy implementation
   5:../../libDaisy/src/per/qspi.h **** 
   6:../../libDaisy/src/per/qspi.h **** #include <cstdint>
   7:../../libDaisy/src/per/qspi.h **** #include "daisy_core.h" // Added for dsy_gpio_pin typedef
   8:../../libDaisy/src/per/qspi.h **** 
   9:../../libDaisy/src/per/qspi.h **** #define DSY_QSPI_TEXT       \
  10:../../libDaisy/src/per/qspi.h ****     __attribute__((section( \
  11:../../libDaisy/src/per/qspi.h ****         ".qspiflash_text"))) /**< used for reading memory in memory_mapped mode. */
  12:../../libDaisy/src/per/qspi.h **** #define DSY_QSPI_DATA       \
  13:../../libDaisy/src/per/qspi.h ****     __attribute__((section( \
  14:../../libDaisy/src/per/qspi.h ****         ".qspiflash_data"))) /**< used for reading memory in memory_mapped mode. */
  15:../../libDaisy/src/per/qspi.h **** #define DSY_QSPI_BSS        \
  16:../../libDaisy/src/per/qspi.h ****     __attribute__((section( \
  17:../../libDaisy/src/per/qspi.h ****         ".qspiflash_bss"))) /**< used for reading memory in memory_mapped mode. */
  18:../../libDaisy/src/per/qspi.h **** 
  19:../../libDaisy/src/per/qspi.h **** namespace daisy
  20:../../libDaisy/src/per/qspi.h **** {
  21:../../libDaisy/src/per/qspi.h **** /** @addtogroup serial
  22:../../libDaisy/src/per/qspi.h **** @{
  23:../../libDaisy/src/per/qspi.h **** */
  24:../../libDaisy/src/per/qspi.h **** 
  25:../../libDaisy/src/per/qspi.h **** /** 
  26:../../libDaisy/src/per/qspi.h ****  Driver for QSPI peripheral to interface with external flash memory. \n 
  27:../../libDaisy/src/per/qspi.h ****     Currently supported QSPI Devices: \n 
  28:../../libDaisy/src/per/qspi.h ****     * IS25LP080D
  29:../../libDaisy/src/per/qspi.h **** */
  30:../../libDaisy/src/per/qspi.h **** class QSPIHandle
  31:../../libDaisy/src/per/qspi.h **** {
ARM GAS  /tmp/cceKARlA.s 			page 42


  32:../../libDaisy/src/per/qspi.h ****   public:
  33:../../libDaisy/src/per/qspi.h ****     enum Result
  34:../../libDaisy/src/per/qspi.h ****     {
  35:../../libDaisy/src/per/qspi.h ****         OK = 0,
  36:../../libDaisy/src/per/qspi.h ****         ERR
  37:../../libDaisy/src/per/qspi.h ****     };
  38:../../libDaisy/src/per/qspi.h **** 
  39:../../libDaisy/src/per/qspi.h ****     /** Indicates the current status of the module. 
  40:../../libDaisy/src/per/qspi.h ****          *  Warnings are indicated by a leading W.
  41:../../libDaisy/src/per/qspi.h ****          *  Errors are indicated by a leading E and cause an immediate exit.
  42:../../libDaisy/src/per/qspi.h ****          * 
  43:../../libDaisy/src/per/qspi.h ****          *  \param GOOD - No errors have been reported.
  44:../../libDaisy/src/per/qspi.h ****          *  \param E_HAL_ERROR - HAL code did not return HAL_OK.
  45:../../libDaisy/src/per/qspi.h ****          *  \param E_SWITCHING_MODES - An error was encountered while switching QSPI peripheral mod
  46:../../libDaisy/src/per/qspi.h ****          *  \param E_INVALID_MODE - QSPI should not be written to while the program is executing fr
  47:../../libDaisy/src/per/qspi.h ****          */
  48:../../libDaisy/src/per/qspi.h ****     enum Status
  49:../../libDaisy/src/per/qspi.h ****     {
  50:../../libDaisy/src/per/qspi.h ****         GOOD = 0,
  51:../../libDaisy/src/per/qspi.h ****         E_HAL_ERROR,
  52:../../libDaisy/src/per/qspi.h ****         E_SWITCHING_MODES,
  53:../../libDaisy/src/per/qspi.h ****         E_INVALID_MODE,
  54:../../libDaisy/src/per/qspi.h ****     };
  55:../../libDaisy/src/per/qspi.h **** 
  56:../../libDaisy/src/per/qspi.h ****     /** Configuration structure for interfacing with QSPI Driver */
  57:../../libDaisy/src/per/qspi.h ****     struct Config
  58:../../libDaisy/src/per/qspi.h ****     {
  59:../../libDaisy/src/per/qspi.h ****         /** Flash Devices supported. (Both of these are more-or-less the same, just different sizes
  60:../../libDaisy/src/per/qspi.h ****         enum Device
  61:../../libDaisy/src/per/qspi.h ****         {
  62:../../libDaisy/src/per/qspi.h ****             IS25LP080D,  /**< & */
  63:../../libDaisy/src/per/qspi.h ****             IS25LP064A,  /**< & */
  64:../../libDaisy/src/per/qspi.h ****             DEVICE_LAST, /**< & */
  65:../../libDaisy/src/per/qspi.h ****         };
  66:../../libDaisy/src/per/qspi.h **** 
  67:../../libDaisy/src/per/qspi.h ****         /** 
  68:../../libDaisy/src/per/qspi.h ****         Modes of operation.
  69:../../libDaisy/src/per/qspi.h ****         Memory Mapped mode: QSPI configured so that the QSPI can be
  70:../../libDaisy/src/per/qspi.h ****         read from starting address 0x90000000. Writing is not
  71:../../libDaisy/src/per/qspi.h ****         possible in this mode. \n 
  72:../../libDaisy/src/per/qspi.h ****         Indirect Polling mode: Device driver enabled. 
  73:../../libDaisy/src/per/qspi.h ****         */
  74:../../libDaisy/src/per/qspi.h ****         enum Mode
  75:../../libDaisy/src/per/qspi.h ****         {
  76:../../libDaisy/src/per/qspi.h ****             MEMORY_MAPPED,    /**< & */
  77:../../libDaisy/src/per/qspi.h ****             INDIRECT_POLLING, /**< & */
  78:../../libDaisy/src/per/qspi.h ****             MODE_LAST,
  79:../../libDaisy/src/per/qspi.h ****         };
  80:../../libDaisy/src/per/qspi.h **** 
  81:../../libDaisy/src/per/qspi.h ****         //SCK,  CE# (active low)
  82:../../libDaisy/src/per/qspi.h ****         struct
  83:../../libDaisy/src/per/qspi.h ****         {
  84:../../libDaisy/src/per/qspi.h ****             dsy_gpio_pin io0; /**< & */
  85:../../libDaisy/src/per/qspi.h ****             dsy_gpio_pin io1; /**< & */
  86:../../libDaisy/src/per/qspi.h ****             dsy_gpio_pin io2; /**< & */
  87:../../libDaisy/src/per/qspi.h ****             dsy_gpio_pin io3; /**< & */
  88:../../libDaisy/src/per/qspi.h ****             dsy_gpio_pin clk; /**< & */
ARM GAS  /tmp/cceKARlA.s 			page 43


  89:../../libDaisy/src/per/qspi.h ****             dsy_gpio_pin ncs; /**< & */
  90:../../libDaisy/src/per/qspi.h ****         } pin_config;
  91:../../libDaisy/src/per/qspi.h **** 
  92:../../libDaisy/src/per/qspi.h ****         Device device;
  93:../../libDaisy/src/per/qspi.h ****         Mode   mode;
  94:../../libDaisy/src/per/qspi.h ****     };
  95:../../libDaisy/src/per/qspi.h **** 
  96:../../libDaisy/src/per/qspi.h ****     /** 
  97:../../libDaisy/src/per/qspi.h ****         Initializes QSPI peripheral, and Resets, and prepares memory for access.
  98:../../libDaisy/src/per/qspi.h ****         \param config should be populated with the mode, device and pin_config before calling this 
  99:../../libDaisy/src/per/qspi.h ****         \return Result::OK or Result::ERR
 100:../../libDaisy/src/per/qspi.h ****         */
 101:../../libDaisy/src/per/qspi.h ****     Result Init(const Config& config);
 102:../../libDaisy/src/per/qspi.h **** 
 103:../../libDaisy/src/per/qspi.h ****     /** Returns the current config. */
 104:../../libDaisy/src/per/qspi.h ****     const Config& GetConfig() const;
 105:../../libDaisy/src/per/qspi.h **** 
 106:../../libDaisy/src/per/qspi.h ****     // Couldn't this just be called before anything else in init? That
 107:../../libDaisy/src/per/qspi.h ****     // would make manually calling it unnecessary.
 108:../../libDaisy/src/per/qspi.h ****     /** 
 109:../../libDaisy/src/per/qspi.h ****         Deinitializes the peripheral
 110:../../libDaisy/src/per/qspi.h ****         This should be called before reinitializing QSPI in a different mode.
 111:../../libDaisy/src/per/qspi.h ****         \return Result::OK or Result::ERR
 112:../../libDaisy/src/per/qspi.h ****         */
 113:../../libDaisy/src/per/qspi.h ****     Result DeInit();
 114:../../libDaisy/src/per/qspi.h **** 
 115:../../libDaisy/src/per/qspi.h ****     /** 
 116:../../libDaisy/src/per/qspi.h ****         Writes a single page to to the specified address on the QSPI chip.
 117:../../libDaisy/src/per/qspi.h ****         For IS25LP*, page size is 256 bytes.
 118:../../libDaisy/src/per/qspi.h ****         \param address Address to write to
 119:../../libDaisy/src/per/qspi.h ****         \param size Buffer size
 120:../../libDaisy/src/per/qspi.h ****         \param buffer Buffer to write
 121:../../libDaisy/src/per/qspi.h ****         \return Result::OK or Result::ERR
 122:../../libDaisy/src/per/qspi.h ****         */
 123:../../libDaisy/src/per/qspi.h ****     Result WritePage(uint32_t address, uint32_t size, uint8_t* buffer);
 124:../../libDaisy/src/per/qspi.h **** 
 125:../../libDaisy/src/per/qspi.h ****     /** 
 126:../../libDaisy/src/per/qspi.h ****         Writes data in buffer to to the QSPI. Starting at address to address+size 
 127:../../libDaisy/src/per/qspi.h ****         \param address Address to write to
 128:../../libDaisy/src/per/qspi.h ****         \param size Buffer size
 129:../../libDaisy/src/per/qspi.h ****         \param buffer Buffer to write
 130:../../libDaisy/src/per/qspi.h ****         \return Result::OK or Result::ERR
 131:../../libDaisy/src/per/qspi.h ****         */
 132:../../libDaisy/src/per/qspi.h ****     Result Write(uint32_t address, uint32_t size, uint8_t* buffer);
 133:../../libDaisy/src/per/qspi.h **** 
 134:../../libDaisy/src/per/qspi.h ****     /** 
 135:../../libDaisy/src/per/qspi.h ****         Erases the area specified on the chip.
 136:../../libDaisy/src/per/qspi.h ****         Erasures will happen by 4K, 32K or 64K increments.
 137:../../libDaisy/src/per/qspi.h ****         Smallest erase possible is 4kB at a time. (on IS25LP*)
 138:../../libDaisy/src/per/qspi.h ****         \param start_addr Address to begin erasing from
 139:../../libDaisy/src/per/qspi.h ****         \param end_addr  Address to stop erasing at
 140:../../libDaisy/src/per/qspi.h ****         \return Result::OK or Result::ERR
 141:../../libDaisy/src/per/qspi.h ****         */
 142:../../libDaisy/src/per/qspi.h ****     Result Erase(uint32_t start_addr, uint32_t end_addr);
 143:../../libDaisy/src/per/qspi.h **** 
 144:../../libDaisy/src/per/qspi.h ****     /**  
 145:../../libDaisy/src/per/qspi.h ****          Erases a single sector of the chip.  
ARM GAS  /tmp/cceKARlA.s 			page 44


 146:../../libDaisy/src/per/qspi.h ****         TODO: Document the size of this function. 
 147:../../libDaisy/src/per/qspi.h ****         \param address Address of sector to erase
 148:../../libDaisy/src/per/qspi.h ****         \return Result::OK or Result::ERR
 149:../../libDaisy/src/per/qspi.h ****         */
 150:../../libDaisy/src/per/qspi.h ****     Result EraseSector(uint32_t address);
 151:../../libDaisy/src/per/qspi.h **** 
 152:../../libDaisy/src/per/qspi.h ****     /** Returns the current class status. Useful for debugging.
 153:../../libDaisy/src/per/qspi.h ****      *  \returns Status
 154:../../libDaisy/src/per/qspi.h ****      */
 155:../../libDaisy/src/per/qspi.h ****     Status GetStatus();
 156:../../libDaisy/src/per/qspi.h **** 
 157:../../libDaisy/src/per/qspi.h ****     /** Returns a pointer to the actual memory used 
 158:../../libDaisy/src/per/qspi.h ****      *  The memory at this address is read-only
 159:../../libDaisy/src/per/qspi.h ****      *  to write to it use the Write function.
 160:../../libDaisy/src/per/qspi.h ****      * 
 161:../../libDaisy/src/per/qspi.h ****      *  \param offset returns the pointer starting this 
 162:../../libDaisy/src/per/qspi.h ****      *                many bytes into the memory
 163:../../libDaisy/src/per/qspi.h ****     */
 164:../../libDaisy/src/per/qspi.h ****     void* GetData(uint32_t offset = 0);
 165:../../libDaisy/src/per/qspi.h **** 
 166:../../libDaisy/src/per/qspi.h ****     QSPIHandle() : pimpl_(nullptr) {}
 1134              		.loc 12 166 5 view .LVU293
 1135              	.LBE349:
 1136              	.LBE348:
 1137              	.LBE347:
 1138              	.LBE346:
 1139              	.LBE345:
 1140              		.loc 10 129 1 is_stmt 0 view .LVU294
 1141 0000 08B5     		push	{r3, lr}
 1142              		.cfi_def_cfa_offset 8
 1143              		.cfi_offset 3, -8
 1144              		.cfi_offset 14, -4
 1145              	.LBB378:
 1146              	.LBB376:
 1147              	.LBB370:
 1148              	.LBB368:
 1149              	.LBB354:
 1150              	.LBB350:
 1151              	.LBB351:
 1152              		.loc 12 166 34 view .LVU295
 1153 0002 1048     		ldr	r0, .L32
 1154 0004 0023     		movs	r3, #0
 1155              	.LBE351:
 1156              	.LBE350:
 1157              	.LBE354:
 1158              	.LBE368:
 1159              	.LBE370:
  17:Ouroboros.cpp **** 
 1160              		.loc 10 17 11 view .LVU296
 1161 0006 104A     		ldr	r2, .L32+4
 1162              	.LBB371:
 1163              	.LBB369:
 1164              	.LBB355:
 1165              	.LBB353:
 1166              	.LBB352:
 1167              		.loc 12 166 34 view .LVU297
 1168 0008 0360     		str	r3, [r0]
ARM GAS  /tmp/cceKARlA.s 			page 45


 1169              	.LVL62:
 1170              		.loc 12 166 34 view .LVU298
 1171              	.LBE352:
 1172              	.LBE353:
 1173              	.LBE355:
 1174              	.LBB356:
 1175              	.LBI356:
  95:../../libDaisy/src/hid/audio.h ****     ~AudioHandle() {}
 1176              		.loc 8 95 5 is_stmt 1 view .LVU299
 1177              	.LBB357:
 1178              	.LBB358:
  95:../../libDaisy/src/hid/audio.h ****     ~AudioHandle() {}
 1179              		.loc 8 95 35 is_stmt 0 view .LVU300
 1180 000a 4361     		str	r3, [r0, #20]
 1181              	.LVL63:
  95:../../libDaisy/src/hid/audio.h ****     ~AudioHandle() {}
 1182              		.loc 8 95 35 view .LVU301
 1183              	.LBE358:
 1184              	.LBE357:
 1185              	.LBE356:
 1186              	.LBB359:
 1187              	.LBI359:
 109:../../libDaisy/src/per/adc.h ****     ~AdcHandle() {}
 1188              		.loc 7 109 5 is_stmt 1 view .LVU302
 109:../../libDaisy/src/per/adc.h ****     ~AdcHandle() {}
 1189              		.loc 7 109 5 is_stmt 0 view .LVU303
 1190              	.LBE359:
 1191              	.LBB360:
 1192              	.LBI360:
 1193              		.file 13 "../../libDaisy/src/per/dac.h"
   1:../../libDaisy/src/per/dac.h **** #pragma once
   2:../../libDaisy/src/per/dac.h **** #ifndef DSY_DAC_H
   3:../../libDaisy/src/per/dac.h **** #define DSY_DAC_H
   4:../../libDaisy/src/per/dac.h **** 
   5:../../libDaisy/src/per/dac.h **** #include "daisy_core.h"
   6:../../libDaisy/src/per/dac.h **** 
   7:../../libDaisy/src/per/dac.h **** namespace daisy
   8:../../libDaisy/src/per/dac.h **** {
   9:../../libDaisy/src/per/dac.h **** /** @brief DAC handle for Built-in DAC Peripheral 
  10:../../libDaisy/src/per/dac.h ****  *  @ingroup per_analog
  11:../../libDaisy/src/per/dac.h ****  ** 
  12:../../libDaisy/src/per/dac.h ****  ** For now only Normal Mode is supported,
  13:../../libDaisy/src/per/dac.h ****  ** Sample and hold mode provides reduced power consumption, but requires a bit more setup.
  14:../../libDaisy/src/per/dac.h ****  **
  15:../../libDaisy/src/per/dac.h ****  ** For now connecting the DAC through other internal peripherals is also not supported.
  16:../../libDaisy/src/per/dac.h ****  **
  17:../../libDaisy/src/per/dac.h ****  ** Since the DAC channels have dedicated pins we don't need to pass in a pin config like with
  18:../../libDaisy/src/per/dac.h ****  ** other modules. However, it is still important to not try to use the DAC pins for anything else.
  19:../../libDaisy/src/per/dac.h ****  ** DAC Channel 1 is on PA4, and DAC Channel 2 is on PA5
  20:../../libDaisy/src/per/dac.h ****  ***/
  21:../../libDaisy/src/per/dac.h **** class DacHandle
  22:../../libDaisy/src/per/dac.h **** {
  23:../../libDaisy/src/per/dac.h ****   public:
  24:../../libDaisy/src/per/dac.h ****     /** Return Values for the DacHandle class */
  25:../../libDaisy/src/per/dac.h ****     enum class Result
  26:../../libDaisy/src/per/dac.h ****     {
  27:../../libDaisy/src/per/dac.h ****         OK,
ARM GAS  /tmp/cceKARlA.s 			page 46


  28:../../libDaisy/src/per/dac.h ****         ERR,
  29:../../libDaisy/src/per/dac.h ****     };
  30:../../libDaisy/src/per/dac.h **** 
  31:../../libDaisy/src/per/dac.h ****     /** Selects which channel(s) will be configured for use. */
  32:../../libDaisy/src/per/dac.h ****     enum class Channel
  33:../../libDaisy/src/per/dac.h ****     {
  34:../../libDaisy/src/per/dac.h ****         ONE,
  35:../../libDaisy/src/per/dac.h ****         TWO,
  36:../../libDaisy/src/per/dac.h ****         BOTH,
  37:../../libDaisy/src/per/dac.h ****     };
  38:../../libDaisy/src/per/dac.h **** 
  39:../../libDaisy/src/per/dac.h ****     /** Sets the Mode for the DAC channels.
  40:../../libDaisy/src/per/dac.h ****      **
  41:../../libDaisy/src/per/dac.h ****      ** Polling mode uses the blocking mode to transmit a single value at a time.
  42:../../libDaisy/src/per/dac.h ****      **
  43:../../libDaisy/src/per/dac.h ****      ** DMA mode uses a buffer, and periodically transmits it triggering a 
  44:../../libDaisy/src/per/dac.h ****      ** callback to fill the buffer when it is ready for more samples.
  45:../../libDaisy/src/per/dac.h ****      ***/
  46:../../libDaisy/src/per/dac.h ****     enum class Mode
  47:../../libDaisy/src/per/dac.h ****     {
  48:../../libDaisy/src/per/dac.h ****         POLLING,
  49:../../libDaisy/src/per/dac.h ****         DMA,
  50:../../libDaisy/src/per/dac.h ****     };
  51:../../libDaisy/src/per/dac.h **** 
  52:../../libDaisy/src/per/dac.h ****     /** Sets the number of bits per sample transmitted out of the DAC.
  53:../../libDaisy/src/per/dac.h ****      ** The output range will be: 0V - VDDA
  54:../../libDaisy/src/per/dac.h ****      ** The resolution will be roughly: bitdepth / (VDDA - 0V) 
  55:../../libDaisy/src/per/dac.h ****      ***/
  56:../../libDaisy/src/per/dac.h ****     enum class BitDepth
  57:../../libDaisy/src/per/dac.h ****     {
  58:../../libDaisy/src/per/dac.h ****         BITS_8,
  59:../../libDaisy/src/per/dac.h ****         BITS_12
  60:../../libDaisy/src/per/dac.h ****     };
  61:../../libDaisy/src/per/dac.h **** 
  62:../../libDaisy/src/per/dac.h ****     /** Sets whether the DAC output is buffered for higher drive ability. */
  63:../../libDaisy/src/per/dac.h ****     enum class BufferState
  64:../../libDaisy/src/per/dac.h ****     {
  65:../../libDaisy/src/per/dac.h ****         ENABLED,
  66:../../libDaisy/src/per/dac.h ****         DISABLED,
  67:../../libDaisy/src/per/dac.h ****     };
  68:../../libDaisy/src/per/dac.h **** 
  69:../../libDaisy/src/per/dac.h ****     /** Configuration structure for initializing the DAC structure. */
  70:../../libDaisy/src/per/dac.h ****     struct Config
  71:../../libDaisy/src/per/dac.h ****     {
  72:../../libDaisy/src/per/dac.h ****         /** Target Samplerate in Hz used to configure the internal 
  73:../../libDaisy/src/per/dac.h ****          ** timebase for DMA mode. Does nothing in POLLING mode.
  74:../../libDaisy/src/per/dac.h ****          ** If the value is 0 at Init time this will default to 48000Hz 
  75:../../libDaisy/src/per/dac.h ****          ** otherwise the driver will attempt meet the target.*/
  76:../../libDaisy/src/per/dac.h ****         uint32_t target_samplerate;
  77:../../libDaisy/src/per/dac.h **** 
  78:../../libDaisy/src/per/dac.h ****         Channel     chn;
  79:../../libDaisy/src/per/dac.h ****         Mode        mode;
  80:../../libDaisy/src/per/dac.h ****         BitDepth    bitdepth;
  81:../../libDaisy/src/per/dac.h ****         BufferState buff_state;
  82:../../libDaisy/src/per/dac.h ****     };
  83:../../libDaisy/src/per/dac.h **** 
  84:../../libDaisy/src/per/dac.h ****     DacHandle() : pimpl_(nullptr) {}
ARM GAS  /tmp/cceKARlA.s 			page 47


 1194              		.loc 13 84 5 is_stmt 1 view .LVU304
 1195              	.LBB361:
 1196              	.LBB362:
 1197              		.loc 13 84 33 is_stmt 0 view .LVU305
 1198 000c 0362     		str	r3, [r0, #32]
 1199              	.LVL64:
 1200              		.loc 13 84 33 view .LVU306
 1201              	.LBE362:
 1202              	.LBE361:
 1203              	.LBE360:
 1204              	.LBB363:
 1205              	.LBI363:
  40:../../libDaisy/src/hid/usb.h **** 
 1206              		.loc 6 40 5 is_stmt 1 view .LVU307
  40:../../libDaisy/src/hid/usb.h **** 
 1207              		.loc 6 40 5 is_stmt 0 view .LVU308
 1208              	.LBE363:
 1209              	.LBB364:
 1210              	.LBI364:
  96:../../libDaisy/src/sys/system.h ****     ~System() {}
 1211              		.loc 5 96 5 is_stmt 1 view .LVU309
  96:../../libDaisy/src/sys/system.h ****     ~System() {}
 1212              		.loc 5 96 5 is_stmt 0 view .LVU310
 1213              	.LBE364:
 1214              	.LBB365:
 1215              	.LBI365:
 1216              		.file 14 "../../libDaisy/src/per/sai.h"
   1:../../libDaisy/src/per/sai.h **** #pragma once
   2:../../libDaisy/src/per/sai.h **** #ifndef DSY_SAI_H
   3:../../libDaisy/src/per/sai.h **** #define DSY_SAI_H
   4:../../libDaisy/src/per/sai.h **** 
   5:../../libDaisy/src/per/sai.h **** #include "daisy_core.h"
   6:../../libDaisy/src/per/sai.h **** 
   7:../../libDaisy/src/per/sai.h **** namespace daisy
   8:../../libDaisy/src/per/sai.h **** {
   9:../../libDaisy/src/per/sai.h **** /** 
  10:../../libDaisy/src/per/sai.h ****  * Support for I2S Audio Protocol with different bit-depth, samplerate options
  11:../../libDaisy/src/per/sai.h ****  * Allows for master or slave, as well as freedom of selecting direction, 
  12:../../libDaisy/src/per/sai.h ****  * and other behavior for each peripheral, and block.
  13:../../libDaisy/src/per/sai.h ****  * 
  14:../../libDaisy/src/per/sai.h ****  * DMA Transfer commands must use buffers located within non-cached memory or use cache maintenance
  15:../../libDaisy/src/per/sai.h ****  * To declare an unitialized global element in the DMA memory section:
  16:../../libDaisy/src/per/sai.h ****  *    int32_t DSY_DMA_BUFFER_SECTOR my_buffer[96];
  17:../../libDaisy/src/per/sai.h ****  *
  18:../../libDaisy/src/per/sai.h ****  * Callback functions will be called once per half of the buffer. In the above example, 
  19:../../libDaisy/src/per/sai.h ****  * the callback function would be called once for every 48 samples.
  20:../../libDaisy/src/per/sai.h ****  * 
  21:../../libDaisy/src/per/sai.h ****  * Use SAI Handle like this:
  22:../../libDaisy/src/per/sai.h ****  * 
  23:../../libDaisy/src/per/sai.h ****  *  SaiHandle::Config sai_config;
  24:../../libDaisy/src/per/sai.h ****  *  sai_config.periph          = SaiHandle::Config::Peripheral::SAI_1;
  25:../../libDaisy/src/per/sai.h ****  *  sai_config.sr              = SaiHandle::Config::SampleRate::SAI_48KHZ;
  26:../../libDaisy/src/per/sai.h ****  *  sai_config.bit_depth       = SaiHandle::Config::BitDepth::SAI_24BIT;
  27:../../libDaisy/src/per/sai.h ****  *  sai_config.a_sync          = SaiHandle::Config::Sync::MASTER;
  28:../../libDaisy/src/per/sai.h ****  *  sai_config.b_sync          = SaiHandle::Config::Sync::SLAVE;
  29:../../libDaisy/src/per/sai.h ****  *  sai_config.a_dir           = SaiHandle::Config::Direction::RECEIVE;
  30:../../libDaisy/src/per/sai.h ****  *  sai_config.b_dir           = SaiHandle::Config::Direction::TRANSMIT;
ARM GAS  /tmp/cceKARlA.s 			page 48


  31:../../libDaisy/src/per/sai.h ****  *  sai_config.pin_config.fs   = {DSY_GPIOE, 4};
  32:../../libDaisy/src/per/sai.h ****  *  sai_config.pin_config.mclk = {DSY_GPIOE, 2};
  33:../../libDaisy/src/per/sai.h ****  *  sai_config.pin_config.sck  = {DSY_GPIOE, 5};
  34:../../libDaisy/src/per/sai.h ****  *  sai_config.pin_config.sa   = {DSY_GPIOE, 6};
  35:../../libDaisy/src/per/sai.h ****  *  sai_config.pin_config.sb   = {DSY_GPIOE, 3};
  36:../../libDaisy/src/per/sai.h ****  *  // Then Initialize
  37:../../libDaisy/src/per/sai.h ****  *  SaiHandle sai;
  38:../../libDaisy/src/per/sai.h ****  *  sai.Init(sai_config);
  39:../../libDaisy/src/per/sai.h ****  *  // Now you can use it:
  40:../../libDaisy/src/per/sai.h ****  *  sai.StartDma(. . .);
  41:../../libDaisy/src/per/sai.h ****  */
  42:../../libDaisy/src/per/sai.h **** class SaiHandle
  43:../../libDaisy/src/per/sai.h **** {
  44:../../libDaisy/src/per/sai.h ****   public:
  45:../../libDaisy/src/per/sai.h ****     /** Contains settings for initialising an SAI Interface */
  46:../../libDaisy/src/per/sai.h ****     struct Config
  47:../../libDaisy/src/per/sai.h ****     {
  48:../../libDaisy/src/per/sai.h ****         /** Specifies the internal peripheral to use (mapped to different hardware pins) */
  49:../../libDaisy/src/per/sai.h ****         enum class Peripheral
  50:../../libDaisy/src/per/sai.h ****         {
  51:../../libDaisy/src/per/sai.h ****             SAI_1,
  52:../../libDaisy/src/per/sai.h ****             SAI_2,
  53:../../libDaisy/src/per/sai.h ****         };
  54:../../libDaisy/src/per/sai.h **** 
  55:../../libDaisy/src/per/sai.h ****         /** Rate at which samples will be streaming to/from the device. */
  56:../../libDaisy/src/per/sai.h ****         enum class SampleRate
  57:../../libDaisy/src/per/sai.h ****         {
  58:../../libDaisy/src/per/sai.h ****             SAI_8KHZ,
  59:../../libDaisy/src/per/sai.h ****             SAI_16KHZ,
  60:../../libDaisy/src/per/sai.h ****             SAI_32KHZ,
  61:../../libDaisy/src/per/sai.h ****             SAI_48KHZ,
  62:../../libDaisy/src/per/sai.h ****             SAI_96KHZ,
  63:../../libDaisy/src/per/sai.h ****         };
  64:../../libDaisy/src/per/sai.h **** 
  65:../../libDaisy/src/per/sai.h ****         /** Bit Depth that the hardware expects to be transferred to/from the device. */
  66:../../libDaisy/src/per/sai.h ****         enum class BitDepth
  67:../../libDaisy/src/per/sai.h ****         {
  68:../../libDaisy/src/per/sai.h ****             SAI_16BIT,
  69:../../libDaisy/src/per/sai.h ****             SAI_24BIT,
  70:../../libDaisy/src/per/sai.h ****             SAI_32BIT,
  71:../../libDaisy/src/per/sai.h ****         };
  72:../../libDaisy/src/per/sai.h **** 
  73:../../libDaisy/src/per/sai.h ****         /** Specifies whether a particular block is the master or the slave 
  74:../../libDaisy/src/per/sai.h ****          ** If both are set to slave, no MCLK signal will be used, and it is
  75:../../libDaisy/src/per/sai.h ****          ** expected that the codec will have its own xtal.
  76:../../libDaisy/src/per/sai.h ****          */
  77:../../libDaisy/src/per/sai.h ****         enum class Sync
  78:../../libDaisy/src/per/sai.h ****         {
  79:../../libDaisy/src/per/sai.h ****             MASTER,
  80:../../libDaisy/src/per/sai.h ****             SLAVE,
  81:../../libDaisy/src/per/sai.h ****         };
  82:../../libDaisy/src/per/sai.h **** 
  83:../../libDaisy/src/per/sai.h ****         /** Specifies the direction for each peripheral block. */
  84:../../libDaisy/src/per/sai.h ****         enum class Direction
  85:../../libDaisy/src/per/sai.h ****         {
  86:../../libDaisy/src/per/sai.h ****             TRANSMIT,
  87:../../libDaisy/src/per/sai.h ****             RECEIVE,
ARM GAS  /tmp/cceKARlA.s 			page 49


  88:../../libDaisy/src/per/sai.h ****         };
  89:../../libDaisy/src/per/sai.h **** 
  90:../../libDaisy/src/per/sai.h ****         Peripheral periph;
  91:../../libDaisy/src/per/sai.h ****         struct
  92:../../libDaisy/src/per/sai.h ****         {
  93:../../libDaisy/src/per/sai.h ****             dsy_gpio_pin mclk, fs, sck, sa, sb;
  94:../../libDaisy/src/per/sai.h ****         } pin_config;
  95:../../libDaisy/src/per/sai.h ****         SampleRate sr;
  96:../../libDaisy/src/per/sai.h ****         BitDepth   bit_depth;
  97:../../libDaisy/src/per/sai.h ****         Sync       a_sync, b_sync;
  98:../../libDaisy/src/per/sai.h ****         Direction  a_dir, b_dir;
  99:../../libDaisy/src/per/sai.h ****     };
 100:../../libDaisy/src/per/sai.h **** 
 101:../../libDaisy/src/per/sai.h ****     /** Return values for SAI functions */
 102:../../libDaisy/src/per/sai.h ****     enum class Result
 103:../../libDaisy/src/per/sai.h ****     {
 104:../../libDaisy/src/per/sai.h ****         OK,
 105:../../libDaisy/src/per/sai.h ****         ERR,
 106:../../libDaisy/src/per/sai.h ****     };
 107:../../libDaisy/src/per/sai.h **** 
 108:../../libDaisy/src/per/sai.h ****     SaiHandle() : pimpl_(nullptr) {}
 1217              		.loc 14 108 5 is_stmt 1 view .LVU311
 1218              	.LBB366:
 1219              	.LBB367:
 1220              		.loc 14 108 33 is_stmt 0 view .LVU312
 1221 000e C363     		str	r3, [r0, #60]
 1222              	.LVL65:
 1223              		.loc 14 108 33 view .LVU313
 1224              	.LBE367:
 1225              	.LBE366:
 1226              	.LBE365:
 1227              	.LBE369:
 1228              	.LBE371:
  17:Ouroboros.cpp **** 
 1229              		.loc 10 17 11 view .LVU314
 1230 0010 0E49     		ldr	r1, .L32+8
 1231 0012 FFF7FEFF 		bl	__aeabi_atexit
 1232              	.LVL66:
 1233              	.LBB372:
 1234              	.LBI372:
  42:../../DaisySP/Source/Control/adenv.h ****     ~AdEnv() {}
 1235              		.loc 1 42 5 is_stmt 1 view .LVU315
  42:../../DaisySP/Source/Control/adenv.h ****     ~AdEnv() {}
 1236              		.loc 1 42 5 is_stmt 0 view .LVU316
 1237              	.LBE372:
  22:Ouroboros.cpp **** static Oscillator osc;
 1238              		.loc 10 22 19 view .LVU317
 1239 0016 0C4A     		ldr	r2, .L32+4
 1240 0018 0D49     		ldr	r1, .L32+12
 1241 001a 0E48     		ldr	r0, .L32+16
 1242 001c FFF7FEFF 		bl	__aeabi_atexit
 1243              	.LVL67:
 1244              	.LBB373:
 1245              	.LBI373:
  23:../../DaisySP/Source/Synthesis/oscillator.h ****     ~Oscillator() {}
 1246              		.loc 2 23 5 is_stmt 1 view .LVU318
  23:../../DaisySP/Source/Synthesis/oscillator.h ****     ~Oscillator() {}
ARM GAS  /tmp/cceKARlA.s 			page 50


 1247              		.loc 2 23 5 is_stmt 0 view .LVU319
 1248              	.LBE373:
  23:Ouroboros.cpp **** static Metro      tick;  
 1249              		.loc 10 23 19 view .LVU320
 1250 0020 094A     		ldr	r2, .L32+4
 1251 0022 0D49     		ldr	r1, .L32+20
 1252 0024 0D48     		ldr	r0, .L32+24
 1253 0026 FFF7FEFF 		bl	__aeabi_atexit
 1254              	.LVL68:
 1255              	.LBB374:
 1256              	.LBI374:
  22:../../DaisySP/Source/Utility/metro.h ****     ~Metro() {}
 1257              		.loc 3 22 5 is_stmt 1 view .LVU321
  22:../../DaisySP/Source/Utility/metro.h ****     ~Metro() {}
 1258              		.loc 3 22 5 is_stmt 0 view .LVU322
 1259              	.LBE374:
  24:Ouroboros.cpp **** 
 1260              		.loc 10 24 19 view .LVU323
 1261 002a 074A     		ldr	r2, .L32+4
 1262 002c 0C49     		ldr	r1, .L32+28
 1263 002e 0D48     		ldr	r0, .L32+32
 1264 0030 FFF7FEFF 		bl	__aeabi_atexit
 1265              	.LVL69:
 1266              	.LBB375:
 1267              	.LBI375:
  31:../../DaisySP/Source/Utility/delayline.h ****     ~DelayLine() {}
 1268              		.loc 9 31 5 is_stmt 1 view .LVU324
  31:../../DaisySP/Source/Utility/delayline.h ****     ~DelayLine() {}
 1269              		.loc 9 31 5 is_stmt 0 view .LVU325
 1270              	.LBE375:
  27:Ouroboros.cpp **** 
 1271              		.loc 10 27 36 view .LVU326
 1272 0034 044A     		ldr	r2, .L32+4
 1273 0036 0C49     		ldr	r1, .L32+36
 1274 0038 0C48     		ldr	r0, .L32+40
 1275              	.LBE376:
 1276              	.LBE378:
 1277              		.loc 10 129 1 view .LVU327
 1278 003a BDE80840 		pop	{r3, lr}
 1279              		.cfi_restore 14
 1280              		.cfi_restore 3
 1281              		.cfi_def_cfa_offset 0
 1282              	.LBB379:
 1283              	.LBB377:
  27:Ouroboros.cpp **** 
 1284              		.loc 10 27 36 view .LVU328
 1285 003e FFF7FEBF 		b	__aeabi_atexit
 1286              	.LVL70:
 1287              	.L33:
 1288 0042 00BF     		.align	2
 1289              	.L32:
 1290 0044 00000000 		.word	.LANCHOR3
 1291 0048 00000000 		.word	__dso_handle
 1292 004c 00000000 		.word	_ZN5daisy9DaisySeedD1Ev
 1293 0050 00000000 		.word	_ZN7daisysp5AdEnvD1Ev
 1294 0054 00000000 		.word	.LANCHOR2
 1295 0058 00000000 		.word	_ZN7daisysp10OscillatorD1Ev
ARM GAS  /tmp/cceKARlA.s 			page 51


 1296 005c 00000000 		.word	.LANCHOR1
 1297 0060 00000000 		.word	_ZN7daisysp5MetroD1Ev
 1298 0064 00000000 		.word	.LANCHOR0
 1299 0068 00000000 		.word	_ZN7daisysp9DelayLineIfLj36000EED1Ev
 1300 006c 00000000 		.word	_ZL3del
 1301              	.LBE377:
 1302              	.LBE379:
 1303              		.cfi_endproc
 1304              	.LFE5264:
 1306              		.section	.init_array,"aw",%init_array
 1307              		.align	2
 1308 0000 00000000 		.word	_GLOBAL__sub_I_hw(target1)
 1309              		.global	adcConfig
 1310              		.global	hw
 1311              		.section	.bss._ZL3del,"aw",%nobits
 1312              		.align	2
 1315              	_ZL3del:
 1316 0000 00000000 		.space	144012
 1316      00000000 
 1316      00000000 
 1316      00000000 
 1316      00000000 
 1317              		.section	.bss._ZL3env,"aw",%nobits
 1318              		.align	2
 1319              		.set	.LANCHOR2,. + 0
 1322              	_ZL3env:
 1323 0000 00000000 		.space	56
 1323      00000000 
 1323      00000000 
 1323      00000000 
 1323      00000000 
 1324              		.section	.bss._ZL3osc,"aw",%nobits
 1325              		.align	2
 1326              		.set	.LANCHOR1,. + 0
 1329              	_ZL3osc:
 1330 0000 00000000 		.space	44
 1330      00000000 
 1330      00000000 
 1330      00000000 
 1330      00000000 
 1331              		.section	.bss._ZL4tick,"aw",%nobits
 1332              		.align	2
 1333              		.set	.LANCHOR0,. + 0
 1336              	_ZL4tick:
 1337 0000 00000000 		.space	16
 1337      00000000 
 1337      00000000 
 1337      00000000 
 1338              		.section	.bss.adcConfig,"aw",%nobits
 1339              		.align	2
 1340              		.set	.LANCHOR4,. + 0
 1343              	adcConfig:
 1344 0000 00000000 		.space	18
 1344      00000000 
 1344      00000000 
 1344      00000000 
 1344      0000
ARM GAS  /tmp/cceKARlA.s 			page 52


 1345              		.section	.bss.hw,"aw",%nobits
 1346              		.align	2
 1347              		.set	.LANCHOR3,. + 0
 1350              	hw:
 1351 0000 00000000 		.space	64
 1351      00000000 
 1351      00000000 
 1351      00000000 
 1351      00000000 
 1352              		.text
 1353              	.Letext0:
 1354              		.file 15 "/home/ethan/Developer/gcc-arm-none-eabi-10-2020-q4-major/arm-none-eabi/include/machine/_
 1355              		.file 16 "/home/ethan/Developer/gcc-arm-none-eabi-10-2020-q4-major/arm-none-eabi/include/sys/_stdi
 1356              		.file 17 "/home/ethan/Developer/gcc-arm-none-eabi-10-2020-q4-major/arm-none-eabi/include/stdint.h"
 1357              		.file 18 "/home/ethan/Developer/gcc-arm-none-eabi-10-2020-q4-major/lib/gcc/arm-none-eabi/10.2.1/in
 1358              		.file 19 "/home/ethan/Developer/gcc-arm-none-eabi-10-2020-q4-major/arm-none-eabi/include/c++/10.2.
 1359              		.file 20 "/home/ethan/Developer/gcc-arm-none-eabi-10-2020-q4-major/arm-none-eabi/include/c++/10.2.
 1360              		.file 21 "/home/ethan/Developer/gcc-arm-none-eabi-10-2020-q4-major/arm-none-eabi/include/c++/10.2.
 1361              		.file 22 "/home/ethan/Developer/gcc-arm-none-eabi-10-2020-q4-major/arm-none-eabi/include/c++/10.2.
 1362              		.file 23 "/home/ethan/Developer/gcc-arm-none-eabi-10-2020-q4-major/arm-none-eabi/include/c++/10.2.
 1363              		.file 24 "/home/ethan/Developer/gcc-arm-none-eabi-10-2020-q4-major/arm-none-eabi/include/c++/10.2.
 1364              		.file 25 "/home/ethan/Developer/gcc-arm-none-eabi-10-2020-q4-major/arm-none-eabi/include/c++/10.2.
 1365              		.file 26 "/home/ethan/Developer/gcc-arm-none-eabi-10-2020-q4-major/arm-none-eabi/include/c++/10.2.
 1366              		.file 27 "/home/ethan/Developer/gcc-arm-none-eabi-10-2020-q4-major/arm-none-eabi/include/c++/10.2.
 1367              		.file 28 "/home/ethan/Developer/gcc-arm-none-eabi-10-2020-q4-major/arm-none-eabi/include/c++/10.2.
 1368              		.file 29 "/home/ethan/Developer/gcc-arm-none-eabi-10-2020-q4-major/arm-none-eabi/include/c++/10.2.
 1369              		.file 30 "/home/ethan/Developer/gcc-arm-none-eabi-10-2020-q4-major/arm-none-eabi/include/c++/10.2.
 1370              		.file 31 "/home/ethan/Developer/gcc-arm-none-eabi-10-2020-q4-major/arm-none-eabi/include/c++/10.2.
 1371              		.file 32 "/home/ethan/Developer/gcc-arm-none-eabi-10-2020-q4-major/arm-none-eabi/include/c++/10.2.
 1372              		.file 33 "/home/ethan/Developer/gcc-arm-none-eabi-10-2020-q4-major/arm-none-eabi/include/c++/10.2.
 1373              		.file 34 "/home/ethan/Developer/gcc-arm-none-eabi-10-2020-q4-major/arm-none-eabi/include/c++/10.2.
 1374              		.file 35 "/home/ethan/Developer/gcc-arm-none-eabi-10-2020-q4-major/arm-none-eabi/include/c++/10.2.
 1375              		.file 36 "/home/ethan/Developer/gcc-arm-none-eabi-10-2020-q4-major/arm-none-eabi/include/sys/_type
 1376              		.file 37 "/home/ethan/Developer/gcc-arm-none-eabi-10-2020-q4-major/arm-none-eabi/include/sys/reent
 1377              		.file 38 "/home/ethan/Developer/gcc-arm-none-eabi-10-2020-q4-major/arm-none-eabi/include/sys/lock.
 1378              		.file 39 "/home/ethan/Developer/gcc-arm-none-eabi-10-2020-q4-major/arm-none-eabi/include/math.h"
 1379              		.file 40 "/home/ethan/Developer/gcc-arm-none-eabi-10-2020-q4-major/arm-none-eabi/include/stdlib.h"
 1380              		.file 41 "/home/ethan/Developer/gcc-arm-none-eabi-10-2020-q4-major/arm-none-eabi/include/c++/10.2.
 1381              		.file 42 "../../DaisySP/Source/Utility/dsp.h"
 1382              		.file 43 "/home/ethan/Developer/gcc-arm-none-eabi-10-2020-q4-major/lib/gcc/arm-none-eabi/10.2.1/in
 1383              		.file 44 "/home/ethan/Developer/gcc-arm-none-eabi-10-2020-q4-major/arm-none-eabi/include/wchar.h"
 1384              		.file 45 "/home/ethan/Developer/gcc-arm-none-eabi-10-2020-q4-major/arm-none-eabi/include/locale.h"
 1385              		.file 46 "/home/ethan/Developer/gcc-arm-none-eabi-10-2020-q4-major/arm-none-eabi/include/stdio.h"
 1386              		.file 47 "/home/ethan/Developer/gcc-arm-none-eabi-10-2020-q4-major/arm-none-eabi/include/c++/10.2.
 1387              		.file 48 "/home/ethan/Developer/gcc-arm-none-eabi-10-2020-q4-major/arm-none-eabi/include/string.h"
 1388              		.file 49 "../../libDaisy/src/daisy_core.h"
 1389              		.file 50 "../../libDaisy/src/per/tim.h"
 1390              		.file 51 "../../libDaisy/src/util/wav_format.h"
 1391              		.file 52 "../../libDaisy/src/dev/max11300.h"
 1392              		.file 53 "../../libDaisy/src/per/gpio.h"
 1393              		.file 54 "../../libDaisy/src/dev/sdram.h"
 1394              		.file 55 "../../libDaisy/src/dev/sr_595.h"
 1395              		.file 56 "<built-in>"
ARM GAS  /tmp/cceKARlA.s 			page 53


DEFINED SYMBOLS
                            *ABS*:0000000000000000 Ouroboros.cpp
     /tmp/cceKARlA.s:17     .text._ZN7daisysp5AdEnvD2Ev:0000000000000000 $t
     /tmp/cceKARlA.s:26     .text._ZN7daisysp5AdEnvD2Ev:0000000000000000 _ZN7daisysp5AdEnvD2Ev
     /tmp/cceKARlA.s:26     .text._ZN7daisysp5AdEnvD2Ev:0000000000000000 _ZN7daisysp5AdEnvD1Ev
     /tmp/cceKARlA.s:43     .text._ZN7daisysp10OscillatorD2Ev:0000000000000000 $t
     /tmp/cceKARlA.s:51     .text._ZN7daisysp10OscillatorD2Ev:0000000000000000 _ZN7daisysp10OscillatorD2Ev
     /tmp/cceKARlA.s:51     .text._ZN7daisysp10OscillatorD2Ev:0000000000000000 _ZN7daisysp10OscillatorD1Ev
     /tmp/cceKARlA.s:68     .text._ZN7daisysp5MetroD2Ev:0000000000000000 $t
     /tmp/cceKARlA.s:76     .text._ZN7daisysp5MetroD2Ev:0000000000000000 _ZN7daisysp5MetroD2Ev
     /tmp/cceKARlA.s:76     .text._ZN7daisysp5MetroD2Ev:0000000000000000 _ZN7daisysp5MetroD1Ev
     /tmp/cceKARlA.s:93     .text._ZN5daisy9DaisySeedD2Ev:0000000000000000 $t
     /tmp/cceKARlA.s:101    .text._ZN5daisy9DaisySeedD2Ev:0000000000000000 _ZN5daisy9DaisySeedD2Ev
     /tmp/cceKARlA.s:101    .text._ZN5daisy9DaisySeedD2Ev:0000000000000000 _ZN5daisy9DaisySeedD1Ev
     /tmp/cceKARlA.s:142    .text._ZN7daisysp9DelayLineIfLj36000EED2Ev:0000000000000000 $t
     /tmp/cceKARlA.s:150    .text._ZN7daisysp9DelayLineIfLj36000EED2Ev:0000000000000000 _ZN7daisysp9DelayLineIfLj36000EED2Ev
     /tmp/cceKARlA.s:150    .text._ZN7daisysp9DelayLineIfLj36000EED2Ev:0000000000000000 _ZN7daisysp9DelayLineIfLj36000EED1Ev
     /tmp/cceKARlA.s:167    .text._ZL13AudioCallbackPKfPfj:0000000000000000 $t
     /tmp/cceKARlA.s:174    .text._ZL13AudioCallbackPKfPfj:0000000000000000 _ZL13AudioCallbackPKfPfj
     /tmp/cceKARlA.s:546    .text._ZL13AudioCallbackPKfPfj:0000000000000114 $d
     /tmp/cceKARlA.s:1315   .bss._ZL3del:0000000000000000 _ZL3del
     /tmp/cceKARlA.s:557    .text.startup.main:0000000000000000 $t
     /tmp/cceKARlA.s:565    .text.startup.main:0000000000000000 main
     /tmp/cceKARlA.s:1090   .text.startup.main:000000000000018c $d
     /tmp/cceKARlA.s:1109   .text.startup._GLOBAL__sub_I_hw:0000000000000000 $t
     /tmp/cceKARlA.s:1116   .text.startup._GLOBAL__sub_I_hw:0000000000000000 _GLOBAL__sub_I_hw
     /tmp/cceKARlA.s:1290   .text.startup._GLOBAL__sub_I_hw:0000000000000044 $d
     /tmp/cceKARlA.s:1307   .init_array:0000000000000000 $d
     /tmp/cceKARlA.s:1343   .bss.adcConfig:0000000000000000 adcConfig
     /tmp/cceKARlA.s:1350   .bss.hw:0000000000000000 hw
     /tmp/cceKARlA.s:1312   .bss._ZL3del:0000000000000000 $d
     /tmp/cceKARlA.s:1318   .bss._ZL3env:0000000000000000 $d
     /tmp/cceKARlA.s:1322   .bss._ZL3env:0000000000000000 _ZL3env
     /tmp/cceKARlA.s:1325   .bss._ZL3osc:0000000000000000 $d
     /tmp/cceKARlA.s:1329   .bss._ZL3osc:0000000000000000 _ZL3osc
     /tmp/cceKARlA.s:1332   .bss._ZL4tick:0000000000000000 $d
     /tmp/cceKARlA.s:1336   .bss._ZL4tick:0000000000000000 _ZL4tick
     /tmp/cceKARlA.s:1339   .bss.adcConfig:0000000000000000 $d
     /tmp/cceKARlA.s:1346   .bss.hw:0000000000000000 $d
                           .group:0000000000000000 _ZN7daisysp5AdEnvD5Ev
                           .group:0000000000000000 _ZN7daisysp10OscillatorD5Ev
                           .group:0000000000000000 _ZN7daisysp5MetroD5Ev
                           .group:0000000000000000 _ZN5daisy9DaisySeedD5Ev
                           .group:0000000000000000 _ZN7daisysp9DelayLineIfLj36000EED5Ev

UNDEFINED SYMBOLS
_ZN7daisysp5AdEnv7ProcessEv
_ZN7daisysp10Oscillator7ProcessEv
_ZN7daisysp5Metro7ProcessEv
rand
_ZN7daisysp10Oscillator12CalcPhaseIncEf
_ZN5daisy9DaisySeed9ConfigureEv
_ZN5daisy9DaisySeed4InitEb
_ZN5daisy9DaisySeed17SetAudioBlockSizeEj
_ZN5daisy9DaisySeed15AudioSampleRateEv
_ZN7daisysp5AdEnv4InitEf
memset
ARM GAS  /tmp/cceKARlA.s 			page 54


_ZN5daisy9DaisySeed6GetPinEh
_ZN5daisy16AdcChannelConfig10InitSingleE12dsy_gpio_pinNS0_15ConversionSpeedE
_ZN5daisy9AdcHandle4InitEPNS_16AdcChannelConfigEjNS0_12OverSamplingE
_ZN7daisysp5Metro4InitEff
_ZN5daisy9AdcHandle5StartEv
_ZN5daisy9DaisySeed10StartAudioEPFvPKfPfjE
_ZN5daisy9DaisySeed6SetLedEb
_ZNK5daisy9AdcHandle8GetFloatEh
_ZN5daisy6System5DelayEm
__aeabi_atexit
__dso_handle
